Archive member included to satisfy reference by file (symbol)

/usr/lib/gcc/arm-none-eabi/10.3.0/thumb/v6-m/nofp/libgcc.a(_udivsi3.o)
                              build/nanos/obj/base58.o (__aeabi_uidiv)
/usr/lib/gcc/arm-none-eabi/10.3.0/thumb/v6-m/nofp/libgcc.a(_divsi3.o)
                              build/nanos/obj/printf.o (__aeabi_idiv)
/usr/lib/gcc/arm-none-eabi/10.3.0/thumb/v6-m/nofp/libgcc.a(_dvmd_tls.o)
                              /usr/lib/gcc/arm-none-eabi/10.3.0/thumb/v6-m/nofp/libgcc.a(_udivsi3.o) (__aeabi_idiv0)
/usr/lib/gcc/arm-none-eabi/10.3.0/thumb/v6-m/nofp/libgcc.a(_arm_cmpdf2.o)
                              build/nanos/obj/printf.o (__aeabi_dcmplt)
/usr/lib/gcc/arm-none-eabi/10.3.0/thumb/v6-m/nofp/libgcc.a(_aeabi_ldivmod.o)
                              build/nanos/obj/format.o (__aeabi_ldivmod)
/usr/lib/gcc/arm-none-eabi/10.3.0/thumb/v6-m/nofp/libgcc.a(_aeabi_uldivmod.o)
                              build/nanos/obj/format.o (__aeabi_uldivmod)
/usr/lib/gcc/arm-none-eabi/10.3.0/thumb/v6-m/nofp/libgcc.a(_muldi3.o)
                              build/nanos/obj/display_utils.o (__aeabi_lmul)
/usr/lib/gcc/arm-none-eabi/10.3.0/thumb/v6-m/nofp/libgcc.a(_fixunsdfsi.o)
                              build/nanos/obj/printf.o (__aeabi_d2uiz)
/usr/lib/gcc/arm-none-eabi/10.3.0/thumb/v6-m/nofp/libgcc.a(_udivmoddi4.o)
                              /usr/lib/gcc/arm-none-eabi/10.3.0/thumb/v6-m/nofp/libgcc.a(_aeabi_uldivmod.o) (__udivmoddi4)
/usr/lib/gcc/arm-none-eabi/10.3.0/thumb/v6-m/nofp/libgcc.a(bpabi.o)
                              /usr/lib/gcc/arm-none-eabi/10.3.0/thumb/v6-m/nofp/libgcc.a(_aeabi_ldivmod.o) (__gnu_ldivmod_helper)
/usr/lib/gcc/arm-none-eabi/10.3.0/thumb/v6-m/nofp/libgcc.a(adddf3.o)
                              build/nanos/obj/printf.o (__aeabi_dadd)
/usr/lib/gcc/arm-none-eabi/10.3.0/thumb/v6-m/nofp/libgcc.a(divdf3.o)
                              build/nanos/obj/printf.o (__aeabi_ddiv)
/usr/lib/gcc/arm-none-eabi/10.3.0/thumb/v6-m/nofp/libgcc.a(eqdf2.o)
                              /usr/lib/gcc/arm-none-eabi/10.3.0/thumb/v6-m/nofp/libgcc.a(_arm_cmpdf2.o) (__eqdf2)
/usr/lib/gcc/arm-none-eabi/10.3.0/thumb/v6-m/nofp/libgcc.a(gedf2.o)
                              /usr/lib/gcc/arm-none-eabi/10.3.0/thumb/v6-m/nofp/libgcc.a(_arm_cmpdf2.o) (__gedf2)
/usr/lib/gcc/arm-none-eabi/10.3.0/thumb/v6-m/nofp/libgcc.a(ledf2.o)
                              /usr/lib/gcc/arm-none-eabi/10.3.0/thumb/v6-m/nofp/libgcc.a(_arm_cmpdf2.o) (__ledf2)
/usr/lib/gcc/arm-none-eabi/10.3.0/thumb/v6-m/nofp/libgcc.a(muldf3.o)
                              build/nanos/obj/printf.o (__aeabi_dmul)
/usr/lib/gcc/arm-none-eabi/10.3.0/thumb/v6-m/nofp/libgcc.a(subdf3.o)
                              build/nanos/obj/printf.o (__aeabi_dsub)
/usr/lib/gcc/arm-none-eabi/10.3.0/thumb/v6-m/nofp/libgcc.a(unorddf2.o)
                              build/nanos/obj/printf.o (__aeabi_dcmpun)
/usr/lib/gcc/arm-none-eabi/10.3.0/thumb/v6-m/nofp/libgcc.a(fixdfsi.o)
                              build/nanos/obj/printf.o (__aeabi_d2iz)
/usr/lib/gcc/arm-none-eabi/10.3.0/thumb/v6-m/nofp/libgcc.a(floatsidf.o)
                              build/nanos/obj/printf.o (__aeabi_i2d)
/usr/lib/gcc/arm-none-eabi/10.3.0/thumb/v6-m/nofp/libgcc.a(floatunsidf.o)
                              build/nanos/obj/printf.o (__aeabi_ui2d)
/usr/lib/gcc/arm-none-eabi/10.3.0/thumb/v6-m/nofp/libgcc.a(_thumb1_case_uhi.o)
                              /usr/lib/gcc/arm-none-eabi/10.3.0/thumb/v6-m/nofp/libgcc.a(divdf3.o) (__gnu_thumb1_case_uhi)
/usr/lib/gcc/arm-none-eabi/10.3.0/thumb/v6-m/nofp/libgcc.a(_lshrdi3.o)
                              /usr/lib/gcc/arm-none-eabi/10.3.0/thumb/v6-m/nofp/libgcc.a(_udivmoddi4.o) (__aeabi_llsr)
/usr/lib/gcc/arm-none-eabi/10.3.0/thumb/v6-m/nofp/libgcc.a(_ashldi3.o)
                              /usr/lib/gcc/arm-none-eabi/10.3.0/thumb/v6-m/nofp/libgcc.a(_udivmoddi4.o) (__aeabi_llsl)
/usr/lib/gcc/arm-none-eabi/10.3.0/thumb/v6-m/nofp/libgcc.a(_clzsi2.o)
                              /usr/lib/gcc/arm-none-eabi/10.3.0/thumb/v6-m/nofp/libgcc.a(adddf3.o) (__clzsi2)
/usr/lib/gcc/arm-none-eabi/10.3.0/thumb/v6-m/nofp/libgcc.a(_clzdi2.o)
                              /usr/lib/gcc/arm-none-eabi/10.3.0/thumb/v6-m/nofp/libgcc.a(_udivmoddi4.o) (__clzdi2)
/usr/lib/gcc/arm-none-eabi/10.3.0/thumb/v6-m/nofp/libgcc.a(_divdi3.o)
                              /usr/lib/gcc/arm-none-eabi/10.3.0/thumb/v6-m/nofp/libgcc.a(bpabi.o) (__divdi3)
/usr/lib/gcc/arm-none-eabi/10.3.0/../../../../arm-none-eabi/lib/thumb/v6-m/nofp/libc_nano.a(lib_a-aeabi_memclr.o)
                              build/nanos/obj/base58.o (__aeabi_memclr)
/usr/lib/gcc/arm-none-eabi/10.3.0/../../../../arm-none-eabi/lib/thumb/v6-m/nofp/libc_nano.a(lib_a-aeabi_memcpy.o)
                              build/nanos/obj/crypto.o (__aeabi_memcpy)
/usr/lib/gcc/arm-none-eabi/10.3.0/../../../../arm-none-eabi/lib/thumb/v6-m/nofp/libc_nano.a(lib_a-aeabi_memmove.o)
                              build/nanos/obj/base58.o (__aeabi_memmove)
/usr/lib/gcc/arm-none-eabi/10.3.0/../../../../arm-none-eabi/lib/thumb/v6-m/nofp/libc_nano.a(lib_a-aeabi_memset.o)
                              build/nanos/obj/base58.o (__aeabi_memset)
/usr/lib/gcc/arm-none-eabi/10.3.0/../../../../arm-none-eabi/lib/thumb/v6-m/nofp/libc_nano.a(lib_a-explicit_bzero.o)
                              build/nanos/obj/crypto.o (explicit_bzero)
/usr/lib/gcc/arm-none-eabi/10.3.0/../../../../arm-none-eabi/lib/thumb/v6-m/nofp/libc_nano.a(lib_a-memcmp.o)
                              build/nanos/obj/check_merkle_tree_sorted.o (memcmp)
/usr/lib/gcc/arm-none-eabi/10.3.0/../../../../arm-none-eabi/lib/thumb/v6-m/nofp/libc_nano.a(lib_a-memcpy-stub.o)
                              /usr/lib/gcc/arm-none-eabi/10.3.0/../../../../arm-none-eabi/lib/thumb/v6-m/nofp/libc_nano.a(lib_a-aeabi_memcpy.o) (memcpy)
/usr/lib/gcc/arm-none-eabi/10.3.0/../../../../arm-none-eabi/lib/thumb/v6-m/nofp/libc_nano.a(lib_a-memmove.o)
                              /usr/lib/gcc/arm-none-eabi/10.3.0/../../../../arm-none-eabi/lib/thumb/v6-m/nofp/libc_nano.a(lib_a-aeabi_memmove.o) (memmove)
/usr/lib/gcc/arm-none-eabi/10.3.0/../../../../arm-none-eabi/lib/thumb/v6-m/nofp/libc_nano.a(lib_a-memset.o)
                              /usr/lib/gcc/arm-none-eabi/10.3.0/../../../../arm-none-eabi/lib/thumb/v6-m/nofp/libc_nano.a(lib_a-aeabi_memset.o) (memset)
/usr/lib/gcc/arm-none-eabi/10.3.0/../../../../arm-none-eabi/lib/thumb/v6-m/nofp/libc_nano.a(lib_a-setjmp.o)
                              build/nanos/obj/crypto.o (setjmp)
/usr/lib/gcc/arm-none-eabi/10.3.0/../../../../arm-none-eabi/lib/thumb/v6-m/nofp/libc_nano.a(lib_a-strcpy.o)
                              build/nanos/obj/display_utils.o (strcpy)
/usr/lib/gcc/arm-none-eabi/10.3.0/../../../../arm-none-eabi/lib/thumb/v6-m/nofp/libc_nano.a(lib_a-strlen-stub.o)
                              build/nanos/obj/bip32.o (strlen)
/usr/lib/gcc/arm-none-eabi/10.3.0/../../../../arm-none-eabi/lib/thumb/v6-m/nofp/libc_nano.a(lib_a-strncmp.o)
                              build/nanos/obj/get_wallet_address.o (strncmp)
/usr/lib/gcc/arm-none-eabi/10.3.0/../../../../arm-none-eabi/lib/thumb/v6-m/nofp/libc_nano.a(lib_a-strncpy.o)
                              build/nanos/obj/display.o (strncpy)
/usr/lib/gcc/arm-none-eabi/10.3.0/../../../../arm-none-eabi/lib/thumb/v6-m/nofp/libc_nano.a(lib_a-bzero.o)
                              /usr/lib/gcc/arm-none-eabi/10.3.0/../../../../arm-none-eabi/lib/thumb/v6-m/nofp/libc_nano.a(lib_a-explicit_bzero.o) (bzero)

Discarded input sections

 .text          0x0000000000000000        0x0 build/nanos/obj/apdu_parser.o
 .llvm_addrsig  0x0000000000000000        0x0 build/nanos/obj/apdu_parser.o
 .text          0x0000000000000000        0x0 build/nanos/obj/base58.o
 .llvm_addrsig  0x0000000000000000        0x0 build/nanos/obj/base58.o
 .text          0x0000000000000000        0x0 build/nanos/obj/bip32.o
 .llvm_addrsig  0x0000000000000000        0x0 build/nanos/obj/bip32.o
 .text          0x0000000000000000        0x0 build/nanos/obj/bip32_path.o
 .llvm_addrsig  0x0000000000000000        0x0 build/nanos/obj/bip32_path.o
 .text          0x0000000000000000        0x0 build/nanos/obj/btchip_bcd.o
 .llvm_addrsig  0x0000000000000000        0x0 build/nanos/obj/btchip_bcd.o
 .text          0x0000000000000000        0x0 build/nanos/obj/buffer.o
 .text.buffer_read_u16
                0x0000000000000000       0x48 build/nanos/obj/buffer.o
 .ARM.exidx.text.buffer_read_u16
                0x0000000000000000        0x8 build/nanos/obj/buffer.o
 .text.buffer_read_u64
                0x0000000000000000       0x4a build/nanos/obj/buffer.o
 .ARM.exidx.text.buffer_read_u64
                0x0000000000000000        0x8 build/nanos/obj/buffer.o
 .text.buffer_write_u8
                0x0000000000000000       0x24 build/nanos/obj/buffer.o
 .ARM.exidx.text.buffer_write_u8
                0x0000000000000000        0x8 build/nanos/obj/buffer.o
 .text.buffer_write_u16
                0x0000000000000000       0x44 build/nanos/obj/buffer.o
 .ARM.exidx.text.buffer_write_u16
                0x0000000000000000        0x8 build/nanos/obj/buffer.o
 .text.buffer_write_u32
                0x0000000000000000       0x44 build/nanos/obj/buffer.o
 .ARM.exidx.text.buffer_write_u32
                0x0000000000000000        0x8 build/nanos/obj/buffer.o
 .text.buffer_write_u64
                0x0000000000000000       0x40 build/nanos/obj/buffer.o
 .ARM.exidx.text.buffer_write_u64
                0x0000000000000000        0x8 build/nanos/obj/buffer.o
 .llvm_addrsig  0x0000000000000000        0x0 build/nanos/obj/buffer.o
 .text          0x0000000000000000        0x0 build/nanos/obj/check_merkle_tree_sorted.o
 .llvm_addrsig  0x0000000000000000        0x0 build/nanos/obj/check_merkle_tree_sorted.o
 .text          0x0000000000000000        0x0 build/nanos/obj/checks.o
 .comment       0x0000000000000000       0x1d build/nanos/obj/checks.o
 .note.GNU-stack
                0x0000000000000000        0x0 build/nanos/obj/checks.o
 .ARM.attributes
                0x0000000000000000       0x45 build/nanos/obj/checks.o
 .llvm_addrsig  0x0000000000000000        0x0 build/nanos/obj/checks.o
 .text          0x0000000000000000        0x0 build/nanos/obj/compare_wallet_script_at_path.o
 .llvm_addrsig  0x0000000000000000        0x0 build/nanos/obj/compare_wallet_script_at_path.o
 .text          0x0000000000000000        0x0 build/nanos/obj/crypto.o
 .text.crypto_get_compressed_pubkey
                0x0000000000000000       0x2a build/nanos/obj/crypto.o
 .ARM.exidx.text.crypto_get_compressed_pubkey
                0x0000000000000000        0x8 build/nanos/obj/crypto.o
 .llvm_addrsig  0x0000000000000000        0x7 build/nanos/obj/crypto.o
 .text          0x0000000000000000        0x0 build/nanos/obj/cx_stubs.o
 .data          0x0000000000000000        0x0 build/nanos/obj/cx_stubs.o
 .bss           0x0000000000000000        0x0 build/nanos/obj/cx_stubs.o
 .text.cx_aes_dec_block
                0x0000000000000000        0xc build/nanos/obj/cx_stubs.o
 .text.cx_aes_enc_block
                0x0000000000000000        0xc build/nanos/obj/cx_stubs.o
 .text.cx_aes_init_key_no_throw
                0x0000000000000000        0xc build/nanos/obj/cx_stubs.o
 .text.cx_aes_iv_no_throw
                0x0000000000000000        0xc build/nanos/obj/cx_stubs.o
 .text.cx_aes_no_throw
                0x0000000000000000        0xc build/nanos/obj/cx_stubs.o
 .text.cx_blake2b
                0x0000000000000000        0xc build/nanos/obj/cx_stubs.o
 .text.cx_blake2b_final
                0x0000000000000000        0xc build/nanos/obj/cx_stubs.o
 .text.cx_blake2b_get_output_size
                0x0000000000000000        0xc build/nanos/obj/cx_stubs.o
 .text.cx_blake2b_init2_no_throw
                0x0000000000000000        0xc build/nanos/obj/cx_stubs.o
 .text.cx_blake2b_init_no_throw
                0x0000000000000000        0xc build/nanos/obj/cx_stubs.o
 .text.cx_blake2b_update
                0x0000000000000000        0xc build/nanos/obj/cx_stubs.o
 .text.cx_crc16
                0x0000000000000000        0xc build/nanos/obj/cx_stubs.o
 .text.cx_crc16_update
                0x0000000000000000        0xc build/nanos/obj/cx_stubs.o
 .text.cx_crc32
                0x0000000000000000        0xc build/nanos/obj/cx_stubs.o
 .text.cx_decode_coord
                0x0000000000000000        0xc build/nanos/obj/cx_stubs.o
 .text.cx_des_dec_block
                0x0000000000000000        0xc build/nanos/obj/cx_stubs.o
 .text.cx_des_enc_block
                0x0000000000000000        0xc build/nanos/obj/cx_stubs.o
 .text.cx_des_init_key_no_throw
                0x0000000000000000        0xc build/nanos/obj/cx_stubs.o
 .text.cx_des_iv_no_throw
                0x0000000000000000        0xc build/nanos/obj/cx_stubs.o
 .text.cx_des_no_throw
                0x0000000000000000        0xc build/nanos/obj/cx_stubs.o
 .text.cx_ecdh_no_throw
                0x0000000000000000        0xc build/nanos/obj/cx_stubs.o
 .text.cx_ecdsa_verify_no_throw
                0x0000000000000000        0xc build/nanos/obj/cx_stubs.o
 .text.cx_ecfp_decode_sig_der
                0x0000000000000000        0xc build/nanos/obj/cx_stubs.o
 .text.cx_ecfp_encode_sig_der
                0x0000000000000000        0xc build/nanos/obj/cx_stubs.o
 .text.cx_ecfp_generate_pair2_no_throw
                0x0000000000000000        0xc build/nanos/obj/cx_stubs.o
 .text.cx_ecfp_init_public_key_no_throw
                0x0000000000000000        0xc build/nanos/obj/cx_stubs.o
 .text.cx_ecschnorr_verify
                0x0000000000000000        0xc build/nanos/obj/cx_stubs.o
 .text.cx_eddsa_get_public_key_internal
                0x0000000000000000        0xc build/nanos/obj/cx_stubs.o
 .text.cx_eddsa_get_public_key_no_throw
                0x0000000000000000        0xc build/nanos/obj/cx_stubs.o
 .text.cx_eddsa_sign_no_throw
                0x0000000000000000        0xc build/nanos/obj/cx_stubs.o
 .text.cx_eddsa_verify_no_throw
                0x0000000000000000        0xc build/nanos/obj/cx_stubs.o
 .text.cx_edwards_compress_point_no_throw
                0x0000000000000000        0xc build/nanos/obj/cx_stubs.o
 .text.cx_edwards_decompress_point_no_throw
                0x0000000000000000        0xc build/nanos/obj/cx_stubs.o
 .text.cx_encode_coord
                0x0000000000000000        0xc build/nanos/obj/cx_stubs.o
 .text.cx_groestl
                0x0000000000000000        0xc build/nanos/obj/cx_stubs.o
 .text.cx_groestl_final
                0x0000000000000000        0xc build/nanos/obj/cx_stubs.o
 .text.cx_groestl_get_output_size
                0x0000000000000000        0xc build/nanos/obj/cx_stubs.o
 .text.cx_groestl_init_no_throw
                0x0000000000000000        0xc build/nanos/obj/cx_stubs.o
 .text.cx_groestl_update
                0x0000000000000000        0xc build/nanos/obj/cx_stubs.o
 .text.cx_hash_final
                0x0000000000000000        0xc build/nanos/obj/cx_stubs.o
 .text.cx_hash_get_info
                0x0000000000000000        0xc build/nanos/obj/cx_stubs.o
 .text.cx_hash_init
                0x0000000000000000        0xc build/nanos/obj/cx_stubs.o
 .text.cx_hash_init_ex
                0x0000000000000000        0xc build/nanos/obj/cx_stubs.o
 .text.cx_hash_sha512
                0x0000000000000000        0xc build/nanos/obj/cx_stubs.o
 .text.cx_hash_update
                0x0000000000000000        0xc build/nanos/obj/cx_stubs.o
 .text.cx_hkdf_expand
                0x0000000000000000        0xc build/nanos/obj/cx_stubs.o
 .text.cx_hkdf_extract
                0x0000000000000000        0xc build/nanos/obj/cx_stubs.o
 .text.cx_hmac_final
                0x0000000000000000        0xc build/nanos/obj/cx_stubs.o
 .text.cx_hmac_init
                0x0000000000000000        0xc build/nanos/obj/cx_stubs.o
 .text.cx_hmac_no_throw
                0x0000000000000000        0xc build/nanos/obj/cx_stubs.o
 .text.cx_hmac_ripemd160_init_no_throw
                0x0000000000000000        0xc build/nanos/obj/cx_stubs.o
 .text.cx_hmac_sha224_init
                0x0000000000000000        0xc build/nanos/obj/cx_stubs.o
 .text.cx_hmac_sha256_init_no_throw
                0x0000000000000000        0xc build/nanos/obj/cx_stubs.o
 .text.cx_hmac_sha384_init
                0x0000000000000000        0xc build/nanos/obj/cx_stubs.o
 .text.cx_hmac_sha512_init_no_throw
                0x0000000000000000        0xc build/nanos/obj/cx_stubs.o
 .text.cx_hmac_update
                0x0000000000000000        0xc build/nanos/obj/cx_stubs.o
 .text.cx_init  0x0000000000000000        0xc build/nanos/obj/cx_stubs.o
 .text.cx_keccak_init_no_throw
                0x0000000000000000        0xc build/nanos/obj/cx_stubs.o
 .text.cx_math_add_no_throw
                0x0000000000000000        0xc build/nanos/obj/cx_stubs.o
 .text.cx_math_invintm_no_throw
                0x0000000000000000        0xc build/nanos/obj/cx_stubs.o
 .text.cx_math_invprimem_no_throw
                0x0000000000000000        0xc build/nanos/obj/cx_stubs.o
 .text.cx_math_is_prime_no_throw
                0x0000000000000000        0xc build/nanos/obj/cx_stubs.o
 .text.cx_math_modm_no_throw
                0x0000000000000000        0xc build/nanos/obj/cx_stubs.o
 .text.cx_math_multm_no_throw
                0x0000000000000000        0xc build/nanos/obj/cx_stubs.o
 .text.cx_math_mult_no_throw
                0x0000000000000000        0xc build/nanos/obj/cx_stubs.o
 .text.cx_math_next_prime_no_throw
                0x0000000000000000        0xc build/nanos/obj/cx_stubs.o
 .text.cx_math_subm_no_throw
                0x0000000000000000        0xc build/nanos/obj/cx_stubs.o
 .text.cx_memxor
                0x0000000000000000        0xc build/nanos/obj/cx_stubs.o
 .text.cx_pbkdf2_hmac
                0x0000000000000000        0xc build/nanos/obj/cx_stubs.o
 .text.cx_pbkdf2_no_throw
                0x0000000000000000        0xc build/nanos/obj/cx_stubs.o
 .text.cx_rng_rfc6979
                0x0000000000000000        0xc build/nanos/obj/cx_stubs.o
 .text.cx_rng_rfc6979_init
                0x0000000000000000        0xc build/nanos/obj/cx_stubs.o
 .text.cx_rng_rfc6979_next
                0x0000000000000000        0xc build/nanos/obj/cx_stubs.o
 .text.cx_rng_u32_range_func
                0x0000000000000000        0xc build/nanos/obj/cx_stubs.o
 .text.cx_sha224_init_no_throw
                0x0000000000000000        0xc build/nanos/obj/cx_stubs.o
 .text.cx_sha384_init_no_throw
                0x0000000000000000        0xc build/nanos/obj/cx_stubs.o
 .text.cx_sha3_final
                0x0000000000000000        0xc build/nanos/obj/cx_stubs.o
 .text.cx_sha3_get_output_size
                0x0000000000000000        0xc build/nanos/obj/cx_stubs.o
 .text.cx_sha3_init_no_throw
                0x0000000000000000        0xc build/nanos/obj/cx_stubs.o
 .text.cx_sha3_update
                0x0000000000000000        0xc build/nanos/obj/cx_stubs.o
 .text.cx_sha3_xof_init_no_throw
                0x0000000000000000        0xc build/nanos/obj/cx_stubs.o
 .text.cx_sha512_final
                0x0000000000000000        0xc build/nanos/obj/cx_stubs.o
 .text.cx_sha512_init_no_throw
                0x0000000000000000        0xc build/nanos/obj/cx_stubs.o
 .text.cx_sha512_update
                0x0000000000000000        0xc build/nanos/obj/cx_stubs.o
 .text.cx_shake128_init_no_throw
                0x0000000000000000        0xc build/nanos/obj/cx_stubs.o
 .text.cx_shake256_init_no_throw
                0x0000000000000000        0xc build/nanos/obj/cx_stubs.o
 .text.cx_swap_buffer32
                0x0000000000000000        0xc build/nanos/obj/cx_stubs.o
 .text.cx_swap_buffer64
                0x0000000000000000        0xc build/nanos/obj/cx_stubs.o
 .text.cx_swap_uint32
                0x0000000000000000        0xc build/nanos/obj/cx_stubs.o
 .text.cx_swap_uint64
                0x0000000000000000        0xc build/nanos/obj/cx_stubs.o
 .text.cx_x25519
                0x0000000000000000        0xc build/nanos/obj/cx_stubs.o
 .text          0x0000000000000000        0x0 build/nanos/obj/cxram_stash.o
 .llvm_addrsig  0x0000000000000000        0x1 build/nanos/obj/cxram_stash.o
 .text          0x0000000000000000        0x0 build/nanos/obj/debug.o
 .text.debug_write
                0x0000000000000000        0xa build/nanos/obj/debug.o
 .ARM.exidx.text.debug_write
                0x0000000000000000        0x8 build/nanos/obj/debug.o
 .text.semihosted_printf
                0x0000000000000000       0x38 build/nanos/obj/debug.o
 .ARM.exidx.text.semihosted_printf
                0x0000000000000000        0x8 build/nanos/obj/debug.o
 .text.print_stack_pointer
                0x0000000000000000        0x2 build/nanos/obj/debug.o
 .ARM.exidx.text.print_stack_pointer
                0x0000000000000000        0x8 build/nanos/obj/debug.o
 .comment       0x0000000000000000       0x1d build/nanos/obj/debug.o
 .note.GNU-stack
                0x0000000000000000        0x0 build/nanos/obj/debug.o
 .ARM.attributes
                0x0000000000000000       0x47 build/nanos/obj/debug.o
 .llvm_addrsig  0x0000000000000000        0x0 build/nanos/obj/debug.o
 .text          0x0000000000000000        0x0 build/nanos/obj/dispatcher.o
 .llvm_addrsig  0x0000000000000000        0x7 build/nanos/obj/dispatcher.o
 .text          0x0000000000000000        0x0 build/nanos/obj/display.o
 .text.send_deny_sw
                0x0000000000000000       0x14 build/nanos/obj/display.o
 .ARM.exidx.text.send_deny_sw
                0x0000000000000000        0x8 build/nanos/obj/display.o
 .text.set_ux_flow_response
                0x0000000000000000       0x10 build/nanos/obj/display.o
 .ARM.exidx.text.set_ux_flow_response
                0x0000000000000000        0x8 build/nanos/obj/display.o
 .rodata.ux_display_confirm_address_step_val
                0x0000000000000000        0x8 build/nanos/obj/display.o
 .rodata.ux_display_confirm_address_step
                0x0000000000000000       0x10 build/nanos/obj/display.o
 .rodata.ux_display_address_step_val
                0x0000000000000000        0x8 build/nanos/obj/display.o
 .rodata.ux_display_address_step
                0x0000000000000000       0x10 build/nanos/obj/display.o
 .rodata.ux_display_address_suspicious_flow
                0x0000000000000000       0x20 build/nanos/obj/display.o
 .rodata.ux_display_unusual_derivation_path_flow
                0x0000000000000000       0x18 build/nanos/obj/display.o
 .llvm_addrsig  0x0000000000000000       0xb8 build/nanos/obj/display.o
 .text          0x0000000000000000        0x0 build/nanos/obj/display_utils.o
 .llvm_addrsig  0x0000000000000000        0x0 build/nanos/obj/display_utils.o
 .text          0x0000000000000000        0x0 build/nanos/obj/extract_bip32_derivation.o
 .llvm_addrsig  0x0000000000000000        0x2 build/nanos/obj/extract_bip32_derivation.o
 .text          0x0000000000000000        0x0 build/nanos/obj/format.o
 .text.format_i64
                0x0000000000000000       0xac build/nanos/obj/format.o
 .ARM.exidx.text.format_i64
                0x0000000000000000        0x8 build/nanos/obj/format.o
 .text.format_u64
                0x0000000000000000       0x8a build/nanos/obj/format.o
 .ARM.exidx.text.format_u64
                0x0000000000000000        0x8 build/nanos/obj/format.o
 .text.format_fpu64
                0x0000000000000000       0x94 build/nanos/obj/format.o
 .ARM.exidx.text.format_fpu64
                0x0000000000000000        0x8 build/nanos/obj/format.o
 .text.format_hex
                0x0000000000000000       0x6c build/nanos/obj/format.o
 .ARM.exidx.text.format_hex
                0x0000000000000000        0x8 build/nanos/obj/format.o
 .rodata.str1.4
                0x0000000000000000       0x15 build/nanos/obj/format.o
 .rodata.str1.1
                0x0000000000000000       0x11 build/nanos/obj/format.o
 .comment       0x0000000000000000       0x1d build/nanos/obj/format.o
 .note.GNU-stack
                0x0000000000000000        0x0 build/nanos/obj/format.o
 .ARM.attributes
                0x0000000000000000       0x47 build/nanos/obj/format.o
 .llvm_addrsig  0x0000000000000000        0x0 build/nanos/obj/format.o
 .text          0x0000000000000000        0x0 build/nanos/obj/get_extended_pubkey.o
 .llvm_addrsig  0x0000000000000000        0x0 build/nanos/obj/get_extended_pubkey.o
 .text          0x0000000000000000        0x0 build/nanos/obj/get_master_fingerprint.o
 .llvm_addrsig  0x0000000000000000        0x0 build/nanos/obj/get_master_fingerprint.o
 .text          0x0000000000000000        0x0 build/nanos/obj/get_merkle_leaf_element.o
 .llvm_addrsig  0x0000000000000000        0x0 build/nanos/obj/get_merkle_leaf_element.o
 .text          0x0000000000000000        0x0 build/nanos/obj/get_merkle_leaf_hash.o
 .llvm_addrsig  0x0000000000000000        0x0 build/nanos/obj/get_merkle_leaf_hash.o
 .text          0x0000000000000000        0x0 build/nanos/obj/get_merkle_leaf_index.o
 .llvm_addrsig  0x0000000000000000        0x0 build/nanos/obj/get_merkle_leaf_index.o
 .text          0x0000000000000000        0x0 build/nanos/obj/get_merkle_preimage.o
 .llvm_addrsig  0x0000000000000000        0x0 build/nanos/obj/get_merkle_preimage.o
 .text          0x0000000000000000        0x0 build/nanos/obj/get_merkleized_map.o
 .llvm_addrsig  0x0000000000000000        0x0 build/nanos/obj/get_merkleized_map.o
 .text          0x0000000000000000        0x0 build/nanos/obj/get_merkleized_map_value.o
 .llvm_addrsig  0x0000000000000000        0x0 build/nanos/obj/get_merkleized_map_value.o
 .text          0x0000000000000000        0x0 build/nanos/obj/get_merkleized_map_value_hash.o
 .llvm_addrsig  0x0000000000000000        0x0 build/nanos/obj/get_merkleized_map_value_hash.o
 .text          0x0000000000000000        0x0 build/nanos/obj/get_preimage.o
 .llvm_addrsig  0x0000000000000000        0x0 build/nanos/obj/get_preimage.o
 .text          0x0000000000000000        0x0 build/nanos/obj/get_wallet_address.o
 .llvm_addrsig  0x0000000000000000        0x0 build/nanos/obj/get_wallet_address.o
 .text          0x0000000000000000        0x0 build/nanos/obj/glyphs.o
 .rodata.C_bitcoin_logo_colors
                0x0000000000000000        0x8 build/nanos/obj/glyphs.o
 .rodata.C_bitcoin_logo_bitmap
                0x0000000000000000       0x19 build/nanos/obj/glyphs.o
 .rodata.C_bitcoin_logo
                0x0000000000000000       0x14 build/nanos/obj/glyphs.o
 .rodata.C_icon_back_x_colors
                0x0000000000000000        0x8 build/nanos/obj/glyphs.o
 .rodata.C_icon_back_x_bitmap
                0x0000000000000000       0x19 build/nanos/obj/glyphs.o
 .rodata.C_icon_back_x
                0x0000000000000000       0x14 build/nanos/obj/glyphs.o
 .rodata.C_icon_coggle_colors
                0x0000000000000000        0x8 build/nanos/obj/glyphs.o
 .rodata.C_icon_coggle_bitmap
                0x0000000000000000       0x19 build/nanos/obj/glyphs.o
 .rodata.C_icon_coggle
                0x0000000000000000       0x14 build/nanos/obj/glyphs.o
 .rodata.C_icon_dashboard_colors
                0x0000000000000000        0x8 build/nanos/obj/glyphs.o
 .rodata.C_icon_dashboard_bitmap
                0x0000000000000000       0x19 build/nanos/obj/glyphs.o
 .rodata.C_icon_dashboard
                0x0000000000000000       0x14 build/nanos/obj/glyphs.o
 .rodata.C_icon_down_colors
                0x0000000000000000        0x8 build/nanos/obj/glyphs.o
 .rodata.C_icon_down_bitmap
                0x0000000000000000        0x4 build/nanos/obj/glyphs.o
 .rodata.C_icon_down
                0x0000000000000000       0x14 build/nanos/obj/glyphs.o
 .rodata.C_icon_up_colors
                0x0000000000000000        0x8 build/nanos/obj/glyphs.o
 .rodata.C_icon_up_bitmap
                0x0000000000000000        0x4 build/nanos/obj/glyphs.o
 .rodata.C_icon_up
                0x0000000000000000       0x14 build/nanos/obj/glyphs.o
 .rodata.C_nanos_badge_bitcoin_colors
                0x0000000000000000        0x8 build/nanos/obj/glyphs.o
 .rodata.C_nanos_badge_bitcoin_bitmap
                0x0000000000000000       0x19 build/nanos/obj/glyphs.o
 .rodata.C_nanos_badge_bitcoin
                0x0000000000000000       0x14 build/nanos/obj/glyphs.o
 .rodata.C_nanos_badge_bitcoin_testnet_colors
                0x0000000000000000        0x8 build/nanos/obj/glyphs.o
 .rodata.C_nanos_badge_bitcoin_testnet_bitmap
                0x0000000000000000       0x19 build/nanos/obj/glyphs.o
 .rodata.C_nanos_badge_bitcoin_testnet
                0x0000000000000000       0x14 build/nanos/obj/glyphs.o
 .rodata.C_nanos_icon_back_colors
                0x0000000000000000        0x8 build/nanos/obj/glyphs.o
 .rodata.C_nanos_icon_back_bitmap
                0x0000000000000000       0x19 build/nanos/obj/glyphs.o
 .rodata.C_nanos_icon_back
                0x0000000000000000       0x14 build/nanos/obj/glyphs.o
 .rodata.C_nanos_icon_dashboard_colors
                0x0000000000000000        0x8 build/nanos/obj/glyphs.o
 .rodata.C_nanos_icon_dashboard_bitmap
                0x0000000000000000       0x19 build/nanos/obj/glyphs.o
 .rodata.C_nanos_icon_dashboard
                0x0000000000000000       0x14 build/nanos/obj/glyphs.o
 .llvm_addrsig  0x0000000000000000       0x2c build/nanos/obj/glyphs.o
 .text          0x0000000000000000        0x0 build/nanos/obj/handle_check_address.o
 .llvm_addrsig  0x0000000000000000        0x0 build/nanos/obj/handle_check_address.o
 .text          0x0000000000000000        0x0 build/nanos/obj/handle_get_printable_amount.o
 .llvm_addrsig  0x0000000000000000        0x0 build/nanos/obj/handle_get_printable_amount.o
 .text          0x0000000000000000        0x0 build/nanos/obj/handle_swap_sign_transaction.o
 .llvm_addrsig  0x0000000000000000        0x0 build/nanos/obj/handle_swap_sign_transaction.o
 .text          0x0000000000000000        0x0 build/nanos/obj/io.o
 .text.io_reset_response
                0x0000000000000000        0xc build/nanos/obj/io.o
 .ARM.exidx.text.io_reset_response
                0x0000000000000000        0x8 build/nanos/obj/io.o
 .llvm_addrsig  0x0000000000000000        0x7 build/nanos/obj/io.o
 .text          0x0000000000000000        0x0 build/nanos/obj/ledger_protocol.o
 .text.LEDGER_PROTOCOL_init
                0x0000000000000000       0x14 build/nanos/obj/ledger_protocol.o
 .ARM.exidx.text.LEDGER_PROTOCOL_init
                0x0000000000000000        0x8 build/nanos/obj/ledger_protocol.o
 .text.LEDGER_PROTOCOL_rx
                0x0000000000000000      0x124 build/nanos/obj/ledger_protocol.o
 .ARM.exidx.text.LEDGER_PROTOCOL_rx
                0x0000000000000000        0x8 build/nanos/obj/ledger_protocol.o
 .text.LEDGER_PROTOCOL_tx
                0x0000000000000000       0x94 build/nanos/obj/ledger_protocol.o
 .ARM.exidx.text.LEDGER_PROTOCOL_tx
                0x0000000000000000        0x8 build/nanos/obj/ledger_protocol.o
 .bss.ledger_protocol
                0x0000000000000000        0x4 build/nanos/obj/ledger_protocol.o
 .comment       0x0000000000000000       0x1d build/nanos/obj/ledger_protocol.o
 .note.GNU-stack
                0x0000000000000000        0x0 build/nanos/obj/ledger_protocol.o
 .ARM.attributes
                0x0000000000000000       0x47 build/nanos/obj/ledger_protocol.o
 .llvm_addrsig  0x0000000000000000        0x0 build/nanos/obj/ledger_protocol.o
 .text          0x0000000000000000        0x0 build/nanos/obj/main.o
 .llvm_addrsig  0x0000000000000000        0xa build/nanos/obj/main.o
 .text          0x0000000000000000        0x0 build/nanos/obj/menu.o
 .rodata.ux_menu_ready_step_syscoin_regtest_val
                0x0000000000000000        0xc build/nanos/obj/menu.o
 .rodata.ux_menu_ready_step_syscoin_regtest
                0x0000000000000000       0x10 build/nanos/obj/menu.o
 .rodata.ux_menu_main_flow_syscoin_regtest
                0x0000000000000000       0x18 build/nanos/obj/menu.o
 .llvm_addrsig  0x0000000000000000       0x20 build/nanos/obj/menu.o
 .text          0x0000000000000000        0x0 build/nanos/obj/merkle.o
 .llvm_addrsig  0x0000000000000000        0x1 build/nanos/obj/merkle.o
 .text          0x0000000000000000        0x0 build/nanos/obj/os.o
 .text.os_memset4
                0x0000000000000000       0x12 build/nanos/obj/os.o
 .ARM.exidx.text.os_memset4
                0x0000000000000000        0x8 build/nanos/obj/os.o
 .text.os_xor   0x0000000000000000       0x26 build/nanos/obj/os.o
 .ARM.exidx.text.os_xor
                0x0000000000000000        0x8 build/nanos/obj/os.o
 .text.os_parse_bertlv
                0x0000000000000000      0x140 build/nanos/obj/os.o
 .ARM.exidx.text.os_parse_bertlv
                0x0000000000000000        0x8 build/nanos/obj/os.o
 .text.safe_desynch
                0x0000000000000000       0x30 build/nanos/obj/os.o
 .ARM.exidx.text.safe_desynch
                0x0000000000000000        0x8 build/nanos/obj/os.o
 .text.cx_rng_u32
                0x0000000000000000        0xe build/nanos/obj/os.o
 .ARM.exidx.text.cx_rng_u32
                0x0000000000000000        0x8 build/nanos/obj/os.o
 .text.u4be_encode
                0x0000000000000000       0x12 build/nanos/obj/os.o
 .ARM.exidx.text.u4be_encode
                0x0000000000000000        0x8 build/nanos/obj/os.o
 .text.u4le_encode
                0x0000000000000000       0x12 build/nanos/obj/os.o
 .ARM.exidx.text.u4le_encode
                0x0000000000000000        0x8 build/nanos/obj/os.o
 .text.os_memmove
                0x0000000000000000        0xc build/nanos/obj/os.o
 .ARM.exidx.text.os_memmove
                0x0000000000000000        0x8 build/nanos/obj/os.o
 .text.os_memcpy
                0x0000000000000000        0xc build/nanos/obj/os.o
 .ARM.exidx.text.os_memcpy
                0x0000000000000000        0x8 build/nanos/obj/os.o
 .text.os_memcmp
                0x0000000000000000        0x8 build/nanos/obj/os.o
 .ARM.exidx.text.os_memcmp
                0x0000000000000000        0x8 build/nanos/obj/os.o
 .text.os_memset
                0x0000000000000000       0x12 build/nanos/obj/os.o
 .ARM.exidx.text.os_memset
                0x0000000000000000        0x8 build/nanos/obj/os.o
 .llvm_addrsig  0x0000000000000000        0x0 build/nanos/obj/os.o
 .text          0x0000000000000000        0x0 build/nanos/obj/os_io_seproxyhal.o
 .text.io_seproxyhal_request_mcu_status
                0x0000000000000000       0x14 build/nanos/obj/os_io_seproxyhal.o
 .ARM.exidx.text.io_seproxyhal_request_mcu_status
                0x0000000000000000        0x8 build/nanos/obj/os_io_seproxyhal.o
 .text.io_seproxyhal_display_bitmap
                0x0000000000000000       0x54 build/nanos/obj/os_io_seproxyhal.o
 .ARM.exidx.text.io_seproxyhal_display_bitmap
                0x0000000000000000        0x8 build/nanos/obj/os_io_seproxyhal.o
 .text.bagl_label_roundtrip_duration_ms
                0x0000000000000000        0xc build/nanos/obj/os_io_seproxyhal.o
 .ARM.exidx.text.bagl_label_roundtrip_duration_ms
                0x0000000000000000        0x8 build/nanos/obj/os_io_seproxyhal.o
 .text.bagl_label_roundtrip_duration_ms_buf
                0x0000000000000000       0x4a build/nanos/obj/os_io_seproxyhal.o
 .ARM.exidx.text.bagl_label_roundtrip_duration_ms_buf
                0x0000000000000000        0x8 build/nanos/obj/os_io_seproxyhal.o
 .text.io_seproxyhal_setup_ticker
                0x0000000000000000       0x24 build/nanos/obj/os_io_seproxyhal.o
 .ARM.exidx.text.io_seproxyhal_setup_ticker
                0x0000000000000000        0x8 build/nanos/obj/os_io_seproxyhal.o
 .text.io_seproxyhal_power_off
                0x0000000000000000       0x10 build/nanos/obj/os_io_seproxyhal.o
 .ARM.exidx.text.io_seproxyhal_power_off
                0x0000000000000000        0x8 build/nanos/obj/os_io_seproxyhal.o
 .text.io_seproxyhal_disable_io
                0x0000000000000000       0x14 build/nanos/obj/os_io_seproxyhal.o
 .ARM.exidx.text.io_seproxyhal_disable_io
                0x0000000000000000        0x8 build/nanos/obj/os_io_seproxyhal.o
 .text.io_seproxyhal_backlight
                0x0000000000000000       0x30 build/nanos/obj/os_io_seproxyhal.o
 .ARM.exidx.text.io_seproxyhal_backlight
                0x0000000000000000        0x8 build/nanos/obj/os_io_seproxyhal.o
 .text.os_ux_blocking
                0x0000000000000000       0x48 build/nanos/obj/os_io_seproxyhal.o
 .ARM.exidx.text.os_ux_blocking
                0x0000000000000000        0x8 build/nanos/obj/os_io_seproxyhal.o
 .text.io_seproxyhal_io_heartbeat
                0x0000000000000000       0x2c build/nanos/obj/os_io_seproxyhal.o
 .ARM.exidx.text.io_seproxyhal_io_heartbeat
                0x0000000000000000        0x8 build/nanos/obj/os_io_seproxyhal.o
 .rodata.seph_io_request_status
                0x0000000000000000        0x3 build/nanos/obj/os_io_seproxyhal.o
 .rodata.seph_io_device_off
                0x0000000000000000        0x3 build/nanos/obj/os_io_seproxyhal.o
 .rodata.seph_io_usb_disconnect
                0x0000000000000000        0x4 build/nanos/obj/os_io_seproxyhal.o
 .llvm_addrsig  0x0000000000000000        0xc build/nanos/obj/os_io_seproxyhal.o
 .text          0x0000000000000000        0x0 build/nanos/obj/os_io_task.o
 .text.bolos_init_ios
                0x0000000000000000       0x18 build/nanos/obj/os_io_task.o
 .ARM.exidx.text.bolos_init_ios
                0x0000000000000000        0x8 build/nanos/obj/os_io_task.o
 .comment       0x0000000000000000       0x1d build/nanos/obj/os_io_task.o
 .note.GNU-stack
                0x0000000000000000        0x0 build/nanos/obj/os_io_task.o
 .ARM.attributes
                0x0000000000000000       0x47 build/nanos/obj/os_io_task.o
 .llvm_addrsig  0x0000000000000000        0x0 build/nanos/obj/os_io_task.o
 .text          0x0000000000000000        0x0 build/nanos/obj/os_io_usb.o
 .llvm_addrsig  0x0000000000000000        0x6 build/nanos/obj/os_io_usb.o
 .text          0x0000000000000000        0x0 build/nanos/obj/os_printf.o
 .llvm_addrsig  0x0000000000000000        0x0 build/nanos/obj/os_printf.o
 .text          0x0000000000000000        0x0 build/nanos/obj/parser.o
 .text.dbuffer_read_u16
                0x0000000000000000       0x3c build/nanos/obj/parser.o
 .ARM.exidx.text.dbuffer_read_u16
                0x0000000000000000        0x8 build/nanos/obj/parser.o
 .text.dbuffer_read_u32
                0x0000000000000000       0x3c build/nanos/obj/parser.o
 .ARM.exidx.text.dbuffer_read_u32
                0x0000000000000000        0x8 build/nanos/obj/parser.o
 .llvm_addrsig  0x0000000000000000        0x0 build/nanos/obj/parser.o
 .text          0x0000000000000000        0x0 build/nanos/obj/pic.o
 .llvm_addrsig  0x0000000000000000        0x3 build/nanos/obj/pic.o
 .text          0x0000000000000000        0x0 build/nanos/obj/policy.o
 .llvm_addrsig  0x0000000000000000       0x22 build/nanos/obj/policy.o
 .text          0x0000000000000000        0x0 build/nanos/obj/printf.o
 .text.printf_  0x0000000000000000       0x2c build/nanos/obj/printf.o
 .ARM.exidx.text.printf_
                0x0000000000000000        0x8 build/nanos/obj/printf.o
 .text._vsnprintf
                0x0000000000000000      0x508 build/nanos/obj/printf.o
 .ARM.exidx.text._vsnprintf
                0x0000000000000000        0x8 build/nanos/obj/printf.o
 .text._out_char
                0x0000000000000000        0xc build/nanos/obj/printf.o
 .ARM.exidx.text._out_char
                0x0000000000000000        0x8 build/nanos/obj/printf.o
 .text.sprintf_
                0x0000000000000000       0x2c build/nanos/obj/printf.o
 .ARM.exidx.text.sprintf_
                0x0000000000000000        0x8 build/nanos/obj/printf.o
 .text._out_buffer
                0x0000000000000000        0x8 build/nanos/obj/printf.o
 .ARM.exidx.text._out_buffer
                0x0000000000000000        0x8 build/nanos/obj/printf.o
 .text.snprintf_
                0x0000000000000000       0x28 build/nanos/obj/printf.o
 .ARM.exidx.text.snprintf_
                0x0000000000000000        0x8 build/nanos/obj/printf.o
 .text.vprintf_
                0x0000000000000000       0x1c build/nanos/obj/printf.o
 .ARM.exidx.text.vprintf_
                0x0000000000000000        0x8 build/nanos/obj/printf.o
 .text.vsnprintf_
                0x0000000000000000       0x1c build/nanos/obj/printf.o
 .ARM.exidx.text.vsnprintf_
                0x0000000000000000        0x8 build/nanos/obj/printf.o
 .text.fctprintf
                0x0000000000000000       0x30 build/nanos/obj/printf.o
 .ARM.exidx.text.fctprintf
                0x0000000000000000        0x8 build/nanos/obj/printf.o
 .text._out_fct
                0x0000000000000000        0xe build/nanos/obj/printf.o
 .ARM.exidx.text._out_fct
                0x0000000000000000        0x8 build/nanos/obj/printf.o
 .text._out_null
                0x0000000000000000        0x2 build/nanos/obj/printf.o
 .ARM.exidx.text._out_null
                0x0000000000000000        0x8 build/nanos/obj/printf.o
 .text._atoi    0x0000000000000000       0x24 build/nanos/obj/printf.o
 .ARM.exidx.text._atoi
                0x0000000000000000        0x8 build/nanos/obj/printf.o
 .text._ntoa_long_long
                0x0000000000000000       0xc6 build/nanos/obj/printf.o
 .ARM.exidx.text._ntoa_long_long
                0x0000000000000000        0x8 build/nanos/obj/printf.o
 .text._ntoa_long
                0x0000000000000000       0x96 build/nanos/obj/printf.o
 .ARM.exidx.text._ntoa_long
                0x0000000000000000        0x8 build/nanos/obj/printf.o
 .text._ftoa    0x0000000000000000      0x33c build/nanos/obj/printf.o
 .ARM.exidx.text._ftoa
                0x0000000000000000        0x8 build/nanos/obj/printf.o
 .text._etoa    0x0000000000000000      0x3f8 build/nanos/obj/printf.o
 .ARM.exidx.text._etoa
                0x0000000000000000        0x8 build/nanos/obj/printf.o
 .text._ntoa_format
                0x0000000000000000      0x12c build/nanos/obj/printf.o
 .ARM.exidx.text._ntoa_format
                0x0000000000000000        0x8 build/nanos/obj/printf.o
 .text._out_rev
                0x0000000000000000       0x84 build/nanos/obj/printf.o
 .ARM.exidx.text._out_rev
                0x0000000000000000        0x8 build/nanos/obj/printf.o
 .rodata._ftoa.pow10
                0x0000000000000000       0x50 build/nanos/obj/printf.o
 .rodata.str1.1
                0x0000000000000000       0x12 build/nanos/obj/printf.o
 .comment       0x0000000000000000       0x1d build/nanos/obj/printf.o
 .note.GNU-stack
                0x0000000000000000        0x0 build/nanos/obj/printf.o
 .ARM.attributes
                0x0000000000000000       0x47 build/nanos/obj/printf.o
 .llvm_addrsig  0x0000000000000000        0x4 build/nanos/obj/printf.o
 .text          0x0000000000000000        0x0 build/nanos/obj/psbt_parse_rawtx.o
 .rodata.n_parse_rawtxinput_steps
                0x0000000000000000        0x4 build/nanos/obj/psbt_parse_rawtx.o
 .rodata.n_parse_rawtxoutput_steps
                0x0000000000000000        0x4 build/nanos/obj/psbt_parse_rawtx.o
 .rodata.n_parse_rawtx_steps
                0x0000000000000000        0x4 build/nanos/obj/psbt_parse_rawtx.o
 .llvm_addrsig  0x0000000000000000       0x1a build/nanos/obj/psbt_parse_rawtx.o
 .text          0x0000000000000000        0x0 build/nanos/obj/read.o
 .text.read_u16_be
                0x0000000000000000        0xe build/nanos/obj/read.o
 .ARM.exidx.text.read_u16_be
                0x0000000000000000        0x8 build/nanos/obj/read.o
 .llvm_addrsig  0x0000000000000000        0x0 build/nanos/obj/read.o
 .text          0x0000000000000000        0x0 build/nanos/obj/register_wallet.o
 .llvm_addrsig  0x0000000000000000        0x0 build/nanos/obj/register_wallet.o
 .text          0x0000000000000000        0x0 build/nanos/obj/script.o
 .llvm_addrsig  0x0000000000000000        0x0 build/nanos/obj/script.o
 .text          0x0000000000000000        0x0 build/nanos/obj/segwit_addr.o
 .text.bech32_decode
                0x0000000000000000      0x160 build/nanos/obj/segwit_addr.o
 .ARM.exidx.text.bech32_decode
                0x0000000000000000        0x8 build/nanos/obj/segwit_addr.o
 .text.segwit_addr_decode
                0x0000000000000000       0x96 build/nanos/obj/segwit_addr.o
 .ARM.exidx.text.segwit_addr_decode
                0x0000000000000000        0x8 build/nanos/obj/segwit_addr.o
 .rodata.charset_rev
                0x0000000000000000       0x80 build/nanos/obj/segwit_addr.o
 .llvm_addrsig  0x0000000000000000        0x0 build/nanos/obj/segwit_addr.o
 .text          0x0000000000000000        0x0 build/nanos/obj/sign_message.o
 .llvm_addrsig  0x0000000000000000        0x1 build/nanos/obj/sign_message.o
 .text          0x0000000000000000        0x0 build/nanos/obj/sign_psbt.o
 .llvm_addrsig  0x0000000000000000        0x4 build/nanos/obj/sign_psbt.o
 .text          0x0000000000000000        0x0 build/nanos/obj/stream_merkle_leaf_element.o
 .llvm_addrsig  0x0000000000000000        0x0 build/nanos/obj/stream_merkle_leaf_element.o
 .text          0x0000000000000000        0x0 build/nanos/obj/stream_merkleized_map_value.o
 .llvm_addrsig  0x0000000000000000        0x0 build/nanos/obj/stream_merkleized_map_value.o
 .text          0x0000000000000000        0x0 build/nanos/obj/stream_preimage.o
 .llvm_addrsig  0x0000000000000000        0x0 build/nanos/obj/stream_preimage.o
 .data          0x0000000000000000        0x0 build/nanos/obj/svc_call.o
 .bss           0x0000000000000000        0x0 build/nanos/obj/svc_call.o
 .data          0x0000000000000000        0x0 build/nanos/obj/svc_cx_call.o
 .bss           0x0000000000000000        0x0 build/nanos/obj/svc_cx_call.o
 .text          0x0000000000000000        0x0 build/nanos/obj/swap_globals.o
 .llvm_addrsig  0x0000000000000000        0x0 build/nanos/obj/swap_globals.o
 .text          0x0000000000000000        0x0 build/nanos/obj/syscalls.o
 .text.nvm_write
                0x0000000000000000       0x18 build/nanos/obj/syscalls.o
 .ARM.exidx.text.nvm_write
                0x0000000000000000        0x8 build/nanos/obj/syscalls.o
 .text.nvm_erase
                0x0000000000000000       0x14 build/nanos/obj/syscalls.o
 .ARM.exidx.text.nvm_erase
                0x0000000000000000        0x8 build/nanos/obj/syscalls.o
 .text.cx_aes_set_key_hw
                0x0000000000000000       0x18 build/nanos/obj/syscalls.o
 .ARM.exidx.text.cx_aes_set_key_hw
                0x0000000000000000        0x8 build/nanos/obj/syscalls.o
 .text.cx_aes_reset_hw
                0x0000000000000000       0x14 build/nanos/obj/syscalls.o
 .ARM.exidx.text.cx_aes_reset_hw
                0x0000000000000000        0x8 build/nanos/obj/syscalls.o
 .text.cx_aes_block_hw
                0x0000000000000000       0x18 build/nanos/obj/syscalls.o
 .ARM.exidx.text.cx_aes_block_hw
                0x0000000000000000        0x8 build/nanos/obj/syscalls.o
 .text.cx_des_set_key_hw
                0x0000000000000000       0x18 build/nanos/obj/syscalls.o
 .ARM.exidx.text.cx_des_set_key_hw
                0x0000000000000000        0x8 build/nanos/obj/syscalls.o
 .text.cx_des_reset_hw
                0x0000000000000000       0x14 build/nanos/obj/syscalls.o
 .ARM.exidx.text.cx_des_reset_hw
                0x0000000000000000        0x8 build/nanos/obj/syscalls.o
 .text.cx_des_block_hw
                0x0000000000000000       0x14 build/nanos/obj/syscalls.o
 .ARM.exidx.text.cx_des_block_hw
                0x0000000000000000        0x8 build/nanos/obj/syscalls.o
 .text.cx_bn_lock
                0x0000000000000000       0x18 build/nanos/obj/syscalls.o
 .ARM.exidx.text.cx_bn_lock
                0x0000000000000000        0x8 build/nanos/obj/syscalls.o
 .text.cx_bn_unlock
                0x0000000000000000       0x14 build/nanos/obj/syscalls.o
 .ARM.exidx.text.cx_bn_unlock
                0x0000000000000000        0x8 build/nanos/obj/syscalls.o
 .text.cx_bn_is_locked
                0x0000000000000000       0x18 build/nanos/obj/syscalls.o
 .ARM.exidx.text.cx_bn_is_locked
                0x0000000000000000        0x8 build/nanos/obj/syscalls.o
 .text.cx_bn_alloc
                0x0000000000000000       0x18 build/nanos/obj/syscalls.o
 .ARM.exidx.text.cx_bn_alloc
                0x0000000000000000        0x8 build/nanos/obj/syscalls.o
 .text.cx_bn_alloc_init
                0x0000000000000000       0x18 build/nanos/obj/syscalls.o
 .ARM.exidx.text.cx_bn_alloc_init
                0x0000000000000000        0x8 build/nanos/obj/syscalls.o
 .text.cx_bn_destroy
                0x0000000000000000       0x18 build/nanos/obj/syscalls.o
 .ARM.exidx.text.cx_bn_destroy
                0x0000000000000000        0x8 build/nanos/obj/syscalls.o
 .text.cx_bn_nbytes
                0x0000000000000000       0x18 build/nanos/obj/syscalls.o
 .ARM.exidx.text.cx_bn_nbytes
                0x0000000000000000        0x8 build/nanos/obj/syscalls.o
 .text.cx_bn_init
                0x0000000000000000       0x18 build/nanos/obj/syscalls.o
 .ARM.exidx.text.cx_bn_init
                0x0000000000000000        0x8 build/nanos/obj/syscalls.o
 .text.cx_bn_rand
                0x0000000000000000       0x18 build/nanos/obj/syscalls.o
 .ARM.exidx.text.cx_bn_rand
                0x0000000000000000        0x8 build/nanos/obj/syscalls.o
 .text.cx_bn_copy
                0x0000000000000000       0x18 build/nanos/obj/syscalls.o
 .ARM.exidx.text.cx_bn_copy
                0x0000000000000000        0x8 build/nanos/obj/syscalls.o
 .text.cx_bn_set_u32
                0x0000000000000000       0x18 build/nanos/obj/syscalls.o
 .ARM.exidx.text.cx_bn_set_u32
                0x0000000000000000        0x8 build/nanos/obj/syscalls.o
 .text.cx_bn_get_u32
                0x0000000000000000       0x18 build/nanos/obj/syscalls.o
 .ARM.exidx.text.cx_bn_get_u32
                0x0000000000000000        0x8 build/nanos/obj/syscalls.o
 .text.cx_bn_export
                0x0000000000000000       0x18 build/nanos/obj/syscalls.o
 .ARM.exidx.text.cx_bn_export
                0x0000000000000000        0x8 build/nanos/obj/syscalls.o
 .text.cx_bn_cmp
                0x0000000000000000       0x18 build/nanos/obj/syscalls.o
 .ARM.exidx.text.cx_bn_cmp
                0x0000000000000000        0x8 build/nanos/obj/syscalls.o
 .text.cx_bn_cmp_u32
                0x0000000000000000       0x18 build/nanos/obj/syscalls.o
 .ARM.exidx.text.cx_bn_cmp_u32
                0x0000000000000000        0x8 build/nanos/obj/syscalls.o
 .text.cx_bn_is_odd
                0x0000000000000000       0x18 build/nanos/obj/syscalls.o
 .ARM.exidx.text.cx_bn_is_odd
                0x0000000000000000        0x8 build/nanos/obj/syscalls.o
 .text.cx_bn_xor
                0x0000000000000000       0x18 build/nanos/obj/syscalls.o
 .ARM.exidx.text.cx_bn_xor
                0x0000000000000000        0x8 build/nanos/obj/syscalls.o
 .text.cx_bn_or
                0x0000000000000000       0x18 build/nanos/obj/syscalls.o
 .ARM.exidx.text.cx_bn_or
                0x0000000000000000        0x8 build/nanos/obj/syscalls.o
 .text.cx_bn_and
                0x0000000000000000       0x18 build/nanos/obj/syscalls.o
 .ARM.exidx.text.cx_bn_and
                0x0000000000000000        0x8 build/nanos/obj/syscalls.o
 .text.cx_bn_tst_bit
                0x0000000000000000       0x18 build/nanos/obj/syscalls.o
 .ARM.exidx.text.cx_bn_tst_bit
                0x0000000000000000        0x8 build/nanos/obj/syscalls.o
 .text.cx_bn_set_bit
                0x0000000000000000       0x18 build/nanos/obj/syscalls.o
 .ARM.exidx.text.cx_bn_set_bit
                0x0000000000000000        0x8 build/nanos/obj/syscalls.o
 .text.cx_bn_clr_bit
                0x0000000000000000       0x18 build/nanos/obj/syscalls.o
 .ARM.exidx.text.cx_bn_clr_bit
                0x0000000000000000        0x8 build/nanos/obj/syscalls.o
 .text.cx_bn_shr
                0x0000000000000000       0x18 build/nanos/obj/syscalls.o
 .ARM.exidx.text.cx_bn_shr
                0x0000000000000000        0x8 build/nanos/obj/syscalls.o
 .text.cx_bn_shl
                0x0000000000000000       0x18 build/nanos/obj/syscalls.o
 .ARM.exidx.text.cx_bn_shl
                0x0000000000000000        0x8 build/nanos/obj/syscalls.o
 .text.cx_bn_cnt_bits
                0x0000000000000000       0x18 build/nanos/obj/syscalls.o
 .ARM.exidx.text.cx_bn_cnt_bits
                0x0000000000000000        0x8 build/nanos/obj/syscalls.o
 .text.cx_bn_add
                0x0000000000000000       0x18 build/nanos/obj/syscalls.o
 .ARM.exidx.text.cx_bn_add
                0x0000000000000000        0x8 build/nanos/obj/syscalls.o
 .text.cx_bn_sub
                0x0000000000000000       0x18 build/nanos/obj/syscalls.o
 .ARM.exidx.text.cx_bn_sub
                0x0000000000000000        0x8 build/nanos/obj/syscalls.o
 .text.cx_bn_mul
                0x0000000000000000       0x18 build/nanos/obj/syscalls.o
 .ARM.exidx.text.cx_bn_mul
                0x0000000000000000        0x8 build/nanos/obj/syscalls.o
 .text.cx_bn_mod_add
                0x0000000000000000       0x18 build/nanos/obj/syscalls.o
 .ARM.exidx.text.cx_bn_mod_add
                0x0000000000000000        0x8 build/nanos/obj/syscalls.o
 .text.cx_bn_mod_sub
                0x0000000000000000       0x18 build/nanos/obj/syscalls.o
 .ARM.exidx.text.cx_bn_mod_sub
                0x0000000000000000        0x8 build/nanos/obj/syscalls.o
 .text.cx_bn_mod_mul
                0x0000000000000000       0x18 build/nanos/obj/syscalls.o
 .ARM.exidx.text.cx_bn_mod_mul
                0x0000000000000000        0x8 build/nanos/obj/syscalls.o
 .text.cx_bn_reduce
                0x0000000000000000       0x18 build/nanos/obj/syscalls.o
 .ARM.exidx.text.cx_bn_reduce
                0x0000000000000000        0x8 build/nanos/obj/syscalls.o
 .text.cx_bn_mod_sqrt
                0x0000000000000000       0x18 build/nanos/obj/syscalls.o
 .ARM.exidx.text.cx_bn_mod_sqrt
                0x0000000000000000        0x8 build/nanos/obj/syscalls.o
 .text.cx_bn_mod_pow_bn
                0x0000000000000000       0x18 build/nanos/obj/syscalls.o
 .ARM.exidx.text.cx_bn_mod_pow_bn
                0x0000000000000000        0x8 build/nanos/obj/syscalls.o
 .text.cx_bn_mod_pow
                0x0000000000000000       0x20 build/nanos/obj/syscalls.o
 .ARM.exidx.text.cx_bn_mod_pow
                0x0000000000000000        0x8 build/nanos/obj/syscalls.o
 .text.cx_bn_mod_pow2
                0x0000000000000000       0x20 build/nanos/obj/syscalls.o
 .ARM.exidx.text.cx_bn_mod_pow2
                0x0000000000000000        0x8 build/nanos/obj/syscalls.o
 .text.cx_bn_mod_invert_nprime
                0x0000000000000000       0x18 build/nanos/obj/syscalls.o
 .ARM.exidx.text.cx_bn_mod_invert_nprime
                0x0000000000000000        0x8 build/nanos/obj/syscalls.o
 .text.cx_bn_mod_u32_invert
                0x0000000000000000       0x18 build/nanos/obj/syscalls.o
 .ARM.exidx.text.cx_bn_mod_u32_invert
                0x0000000000000000        0x8 build/nanos/obj/syscalls.o
 .text.cx_mont_alloc
                0x0000000000000000       0x18 build/nanos/obj/syscalls.o
 .ARM.exidx.text.cx_mont_alloc
                0x0000000000000000        0x8 build/nanos/obj/syscalls.o
 .text.cx_mont_init
                0x0000000000000000       0x18 build/nanos/obj/syscalls.o
 .ARM.exidx.text.cx_mont_init
                0x0000000000000000        0x8 build/nanos/obj/syscalls.o
 .text.cx_mont_init2
                0x0000000000000000       0x18 build/nanos/obj/syscalls.o
 .ARM.exidx.text.cx_mont_init2
                0x0000000000000000        0x8 build/nanos/obj/syscalls.o
 .text.cx_mont_to_montgomery
                0x0000000000000000       0x18 build/nanos/obj/syscalls.o
 .ARM.exidx.text.cx_mont_to_montgomery
                0x0000000000000000        0x8 build/nanos/obj/syscalls.o
 .text.cx_mont_from_montgomery
                0x0000000000000000       0x18 build/nanos/obj/syscalls.o
 .ARM.exidx.text.cx_mont_from_montgomery
                0x0000000000000000        0x8 build/nanos/obj/syscalls.o
 .text.cx_mont_mul
                0x0000000000000000       0x18 build/nanos/obj/syscalls.o
 .ARM.exidx.text.cx_mont_mul
                0x0000000000000000        0x8 build/nanos/obj/syscalls.o
 .text.cx_mont_pow
                0x0000000000000000       0x20 build/nanos/obj/syscalls.o
 .ARM.exidx.text.cx_mont_pow
                0x0000000000000000        0x8 build/nanos/obj/syscalls.o
 .text.cx_mont_pow_bn
                0x0000000000000000       0x18 build/nanos/obj/syscalls.o
 .ARM.exidx.text.cx_mont_pow_bn
                0x0000000000000000        0x8 build/nanos/obj/syscalls.o
 .text.cx_mont_invert_nprime
                0x0000000000000000       0x18 build/nanos/obj/syscalls.o
 .ARM.exidx.text.cx_mont_invert_nprime
                0x0000000000000000        0x8 build/nanos/obj/syscalls.o
 .text.cx_bn_is_prime
                0x0000000000000000       0x18 build/nanos/obj/syscalls.o
 .ARM.exidx.text.cx_bn_is_prime
                0x0000000000000000        0x8 build/nanos/obj/syscalls.o
 .text.cx_bn_next_prime
                0x0000000000000000       0x18 build/nanos/obj/syscalls.o
 .ARM.exidx.text.cx_bn_next_prime
                0x0000000000000000        0x8 build/nanos/obj/syscalls.o
 .text.cx_bn_rng
                0x0000000000000000       0x18 build/nanos/obj/syscalls.o
 .ARM.exidx.text.cx_bn_rng
                0x0000000000000000        0x8 build/nanos/obj/syscalls.o
 .text.cx_ecdomain_size
                0x0000000000000000       0x18 build/nanos/obj/syscalls.o
 .ARM.exidx.text.cx_ecdomain_size
                0x0000000000000000        0x8 build/nanos/obj/syscalls.o
 .text.cx_ecdomain_parameter
                0x0000000000000000       0x18 build/nanos/obj/syscalls.o
 .ARM.exidx.text.cx_ecdomain_parameter
                0x0000000000000000        0x8 build/nanos/obj/syscalls.o
 .text.cx_ecdomain_parameter_bn
                0x0000000000000000       0x18 build/nanos/obj/syscalls.o
 .ARM.exidx.text.cx_ecdomain_parameter_bn
                0x0000000000000000        0x8 build/nanos/obj/syscalls.o
 .text.cx_ecdomain_generator
                0x0000000000000000       0x18 build/nanos/obj/syscalls.o
 .ARM.exidx.text.cx_ecdomain_generator
                0x0000000000000000        0x8 build/nanos/obj/syscalls.o
 .text.cx_ecdomain_generator_bn
                0x0000000000000000       0x18 build/nanos/obj/syscalls.o
 .ARM.exidx.text.cx_ecdomain_generator_bn
                0x0000000000000000        0x8 build/nanos/obj/syscalls.o
 .text.cx_ecpoint_alloc
                0x0000000000000000       0x18 build/nanos/obj/syscalls.o
 .ARM.exidx.text.cx_ecpoint_alloc
                0x0000000000000000        0x8 build/nanos/obj/syscalls.o
 .text.cx_ecpoint_destroy
                0x0000000000000000       0x18 build/nanos/obj/syscalls.o
 .ARM.exidx.text.cx_ecpoint_destroy
                0x0000000000000000        0x8 build/nanos/obj/syscalls.o
 .text.cx_ecpoint_init
                0x0000000000000000       0x20 build/nanos/obj/syscalls.o
 .ARM.exidx.text.cx_ecpoint_init
                0x0000000000000000        0x8 build/nanos/obj/syscalls.o
 .text.cx_ecpoint_init_bn
                0x0000000000000000       0x18 build/nanos/obj/syscalls.o
 .ARM.exidx.text.cx_ecpoint_init_bn
                0x0000000000000000        0x8 build/nanos/obj/syscalls.o
 .text.cx_ecpoint_export
                0x0000000000000000       0x20 build/nanos/obj/syscalls.o
 .ARM.exidx.text.cx_ecpoint_export
                0x0000000000000000        0x8 build/nanos/obj/syscalls.o
 .text.cx_ecpoint_export_bn
                0x0000000000000000       0x18 build/nanos/obj/syscalls.o
 .ARM.exidx.text.cx_ecpoint_export_bn
                0x0000000000000000        0x8 build/nanos/obj/syscalls.o
 .text.cx_ecpoint_compress
                0x0000000000000000       0x18 build/nanos/obj/syscalls.o
 .ARM.exidx.text.cx_ecpoint_compress
                0x0000000000000000        0x8 build/nanos/obj/syscalls.o
 .text.cx_ecpoint_decompress
                0x0000000000000000       0x18 build/nanos/obj/syscalls.o
 .ARM.exidx.text.cx_ecpoint_decompress
                0x0000000000000000        0x8 build/nanos/obj/syscalls.o
 .text.cx_ecpoint_add
                0x0000000000000000       0x18 build/nanos/obj/syscalls.o
 .ARM.exidx.text.cx_ecpoint_add
                0x0000000000000000        0x8 build/nanos/obj/syscalls.o
 .text.cx_ecpoint_neg
                0x0000000000000000       0x18 build/nanos/obj/syscalls.o
 .ARM.exidx.text.cx_ecpoint_neg
                0x0000000000000000        0x8 build/nanos/obj/syscalls.o
 .text.cx_ecpoint_scalarmul
                0x0000000000000000       0x18 build/nanos/obj/syscalls.o
 .ARM.exidx.text.cx_ecpoint_scalarmul
                0x0000000000000000        0x8 build/nanos/obj/syscalls.o
 .text.cx_ecpoint_scalarmul_bn
                0x0000000000000000       0x18 build/nanos/obj/syscalls.o
 .ARM.exidx.text.cx_ecpoint_scalarmul_bn
                0x0000000000000000        0x8 build/nanos/obj/syscalls.o
 .text.cx_ecpoint_rnd_scalarmul
                0x0000000000000000       0x18 build/nanos/obj/syscalls.o
 .ARM.exidx.text.cx_ecpoint_rnd_scalarmul
                0x0000000000000000        0x8 build/nanos/obj/syscalls.o
 .text.cx_ecpoint_rnd_scalarmul_bn
                0x0000000000000000       0x18 build/nanos/obj/syscalls.o
 .ARM.exidx.text.cx_ecpoint_rnd_scalarmul_bn
                0x0000000000000000        0x8 build/nanos/obj/syscalls.o
 .text.cx_ecpoint_double_scalarmul
                0x0000000000000000       0x28 build/nanos/obj/syscalls.o
 .ARM.exidx.text.cx_ecpoint_double_scalarmul
                0x0000000000000000        0x8 build/nanos/obj/syscalls.o
 .text.cx_ecpoint_double_scalarmul_bn
                0x0000000000000000       0x20 build/nanos/obj/syscalls.o
 .ARM.exidx.text.cx_ecpoint_double_scalarmul_bn
                0x0000000000000000        0x8 build/nanos/obj/syscalls.o
 .text.cx_ecpoint_cmp
                0x0000000000000000       0x18 build/nanos/obj/syscalls.o
 .ARM.exidx.text.cx_ecpoint_cmp
                0x0000000000000000        0x8 build/nanos/obj/syscalls.o
 .text.cx_ecpoint_is_on_curve
                0x0000000000000000       0x18 build/nanos/obj/syscalls.o
 .ARM.exidx.text.cx_ecpoint_is_on_curve
                0x0000000000000000        0x8 build/nanos/obj/syscalls.o
 .text.cx_ecpoint_is_at_infinity
                0x0000000000000000       0x18 build/nanos/obj/syscalls.o
 .ARM.exidx.text.cx_ecpoint_is_at_infinity
                0x0000000000000000        0x8 build/nanos/obj/syscalls.o
 .text.cx_ecpoint_x25519
                0x0000000000000000       0x18 build/nanos/obj/syscalls.o
 .ARM.exidx.text.cx_ecpoint_x25519
                0x0000000000000000        0x8 build/nanos/obj/syscalls.o
 .text.cx_ecpoint_x448
                0x0000000000000000       0x18 build/nanos/obj/syscalls.o
 .ARM.exidx.text.cx_ecpoint_x448
                0x0000000000000000        0x8 build/nanos/obj/syscalls.o
 .text.cx_crc32_hw
                0x0000000000000000       0x18 build/nanos/obj/syscalls.o
 .ARM.exidx.text.cx_crc32_hw
                0x0000000000000000        0x8 build/nanos/obj/syscalls.o
 .text.cx_get_random_bytes
                0x0000000000000000       0x18 build/nanos/obj/syscalls.o
 .ARM.exidx.text.cx_get_random_bytes
                0x0000000000000000        0x8 build/nanos/obj/syscalls.o
 .text.cx_trng_get_random_data
                0x0000000000000000       0x14 build/nanos/obj/syscalls.o
 .ARM.exidx.text.cx_trng_get_random_data
                0x0000000000000000        0x8 build/nanos/obj/syscalls.o
 .text.os_perso_erase_all
                0x0000000000000000       0x14 build/nanos/obj/syscalls.o
 .ARM.exidx.text.os_perso_erase_all
                0x0000000000000000        0x8 build/nanos/obj/syscalls.o
 .text.os_perso_set_seed
                0x0000000000000000       0x18 build/nanos/obj/syscalls.o
 .ARM.exidx.text.os_perso_set_seed
                0x0000000000000000        0x8 build/nanos/obj/syscalls.o
 .text.os_perso_derive_and_set_seed
                0x0000000000000000       0x28 build/nanos/obj/syscalls.o
 .ARM.exidx.text.os_perso_derive_and_set_seed
                0x0000000000000000        0x8 build/nanos/obj/syscalls.o
 .text.os_perso_set_words
                0x0000000000000000       0x14 build/nanos/obj/syscalls.o
 .ARM.exidx.text.os_perso_set_words
                0x0000000000000000        0x8 build/nanos/obj/syscalls.o
 .text.os_perso_finalize
                0x0000000000000000       0x14 build/nanos/obj/syscalls.o
 .ARM.exidx.text.os_perso_finalize
                0x0000000000000000        0x8 build/nanos/obj/syscalls.o
 .text.os_perso_set_onboarding_status
                0x0000000000000000       0x18 build/nanos/obj/syscalls.o
 .ARM.exidx.text.os_perso_set_onboarding_status
                0x0000000000000000        0x8 build/nanos/obj/syscalls.o
 .text.os_perso_derive_eip2333
                0x0000000000000000       0x18 build/nanos/obj/syscalls.o
 .ARM.exidx.text.os_perso_derive_eip2333
                0x0000000000000000        0x8 build/nanos/obj/syscalls.o
 .text.os_endorsement_get_code_hash
                0x0000000000000000       0x18 build/nanos/obj/syscalls.o
 .ARM.exidx.text.os_endorsement_get_code_hash
                0x0000000000000000        0x8 build/nanos/obj/syscalls.o
 .text.os_endorsement_get_public_key
                0x0000000000000000       0x18 build/nanos/obj/syscalls.o
 .ARM.exidx.text.os_endorsement_get_public_key
                0x0000000000000000        0x8 build/nanos/obj/syscalls.o
 .text.os_endorsement_get_public_key_certificate
                0x0000000000000000       0x18 build/nanos/obj/syscalls.o
 .ARM.exidx.text.os_endorsement_get_public_key_certificate
                0x0000000000000000        0x8 build/nanos/obj/syscalls.o
 .text.os_endorsement_key1_get_app_secret
                0x0000000000000000       0x18 build/nanos/obj/syscalls.o
 .ARM.exidx.text.os_endorsement_key1_get_app_secret
                0x0000000000000000        0x8 build/nanos/obj/syscalls.o
 .text.os_endorsement_key1_sign_data
                0x0000000000000000       0x18 build/nanos/obj/syscalls.o
 .ARM.exidx.text.os_endorsement_key1_sign_data
                0x0000000000000000        0x8 build/nanos/obj/syscalls.o
 .text.os_endorsement_key2_derive_sign_data
                0x0000000000000000       0x18 build/nanos/obj/syscalls.o
 .ARM.exidx.text.os_endorsement_key2_derive_sign_data
                0x0000000000000000        0x8 build/nanos/obj/syscalls.o
 .text.os_perso_set_pin
                0x0000000000000000       0x18 build/nanos/obj/syscalls.o
 .ARM.exidx.text.os_perso_set_pin
                0x0000000000000000        0x8 build/nanos/obj/syscalls.o
 .text.os_perso_set_current_identity_pin
                0x0000000000000000       0x14 build/nanos/obj/syscalls.o
 .ARM.exidx.text.os_perso_set_current_identity_pin
                0x0000000000000000        0x8 build/nanos/obj/syscalls.o
 .text.os_global_pin_check
                0x0000000000000000       0x18 build/nanos/obj/syscalls.o
 .ARM.exidx.text.os_global_pin_check
                0x0000000000000000        0x8 build/nanos/obj/syscalls.o
 .text.os_global_pin_invalidate
                0x0000000000000000       0x14 build/nanos/obj/syscalls.o
 .ARM.exidx.text.os_global_pin_invalidate
                0x0000000000000000        0x8 build/nanos/obj/syscalls.o
 .text.os_global_pin_retries
                0x0000000000000000       0x14 build/nanos/obj/syscalls.o
 .ARM.exidx.text.os_global_pin_retries
                0x0000000000000000        0x8 build/nanos/obj/syscalls.o
 .text.os_registry_count
                0x0000000000000000       0x14 build/nanos/obj/syscalls.o
 .ARM.exidx.text.os_registry_count
                0x0000000000000000        0x8 build/nanos/obj/syscalls.o
 .text.os_registry_get
                0x0000000000000000       0x14 build/nanos/obj/syscalls.o
 .ARM.exidx.text.os_registry_get
                0x0000000000000000        0x8 build/nanos/obj/syscalls.o
 .text.os_ux_result
                0x0000000000000000       0x18 build/nanos/obj/syscalls.o
 .ARM.exidx.text.os_ux_result
                0x0000000000000000        0x8 build/nanos/obj/syscalls.o
 .text.os_lib_call
                0x0000000000000000       0x18 build/nanos/obj/syscalls.o
 .ARM.exidx.text.os_lib_call
                0x0000000000000000        0x8 build/nanos/obj/syscalls.o
 .text.os_version
                0x0000000000000000       0x18 build/nanos/obj/syscalls.o
 .ARM.exidx.text.os_version
                0x0000000000000000        0x8 build/nanos/obj/syscalls.o
 .text.os_serial
                0x0000000000000000       0x18 build/nanos/obj/syscalls.o
 .ARM.exidx.text.os_serial
                0x0000000000000000        0x8 build/nanos/obj/syscalls.o
 .text.os_seph_features
                0x0000000000000000       0x14 build/nanos/obj/syscalls.o
 .ARM.exidx.text.os_seph_features
                0x0000000000000000        0x8 build/nanos/obj/syscalls.o
 .text.os_seph_version
                0x0000000000000000       0x18 build/nanos/obj/syscalls.o
 .ARM.exidx.text.os_seph_version
                0x0000000000000000        0x8 build/nanos/obj/syscalls.o
 .text.os_bootloader_version
                0x0000000000000000       0x18 build/nanos/obj/syscalls.o
 .ARM.exidx.text.os_bootloader_version
                0x0000000000000000        0x8 build/nanos/obj/syscalls.o
 .text.os_setting_get
                0x0000000000000000       0x18 build/nanos/obj/syscalls.o
 .ARM.exidx.text.os_setting_get
                0x0000000000000000        0x8 build/nanos/obj/syscalls.o
 .text.os_setting_set
                0x0000000000000000       0x18 build/nanos/obj/syscalls.o
 .ARM.exidx.text.os_setting_set
                0x0000000000000000        0x8 build/nanos/obj/syscalls.o
 .text.os_get_memory_info
                0x0000000000000000       0x18 build/nanos/obj/syscalls.o
 .ARM.exidx.text.os_get_memory_info
                0x0000000000000000        0x8 build/nanos/obj/syscalls.o
 .text.os_registry_get_tag
                0x0000000000000000       0x24 build/nanos/obj/syscalls.o
 .ARM.exidx.text.os_registry_get_tag
                0x0000000000000000        0x8 build/nanos/obj/syscalls.o
 .text.os_registry_delete_app_and_dependees
                0x0000000000000000       0x18 build/nanos/obj/syscalls.o
 .ARM.exidx.text.os_registry_delete_app_and_dependees
                0x0000000000000000        0x8 build/nanos/obj/syscalls.o
 .text.os_registry_delete_all_apps
                0x0000000000000000       0x14 build/nanos/obj/syscalls.o
 .ARM.exidx.text.os_registry_delete_all_apps
                0x0000000000000000        0x8 build/nanos/obj/syscalls.o
 .text.os_customca_verify
                0x0000000000000000       0x18 build/nanos/obj/syscalls.o
 .ARM.exidx.text.os_customca_verify
                0x0000000000000000        0x8 build/nanos/obj/syscalls.o
 .text.os_sched_exec
                0x0000000000000000       0x18 build/nanos/obj/syscalls.o
 .ARM.exidx.text.os_sched_exec
                0x0000000000000000        0x8 build/nanos/obj/syscalls.o
 .text.os_sched_is_running
                0x0000000000000000       0x1c build/nanos/obj/syscalls.o
 .ARM.exidx.text.os_sched_is_running
                0x0000000000000000        0x8 build/nanos/obj/syscalls.o
 .text.os_sched_create
                0x0000000000000000       0x28 build/nanos/obj/syscalls.o
 .ARM.exidx.text.os_sched_create
                0x0000000000000000        0x8 build/nanos/obj/syscalls.o
 .text.os_sched_kill
                0x0000000000000000       0x18 build/nanos/obj/syscalls.o
 .ARM.exidx.text.os_sched_kill
                0x0000000000000000        0x8 build/nanos/obj/syscalls.o
 .text.nvm_write_page
                0x0000000000000000       0x18 build/nanos/obj/syscalls.o
 .ARM.exidx.text.nvm_write_page
                0x0000000000000000        0x8 build/nanos/obj/syscalls.o
 .text.nvm_erase_page
                0x0000000000000000       0x18 build/nanos/obj/syscalls.o
 .ARM.exidx.text.nvm_erase_page
                0x0000000000000000        0x8 build/nanos/obj/syscalls.o
 .text.os_sched_yield
                0x0000000000000000       0x18 build/nanos/obj/syscalls.o
 .ARM.exidx.text.os_sched_yield
                0x0000000000000000        0x8 build/nanos/obj/syscalls.o
 .text.os_sched_switch
                0x0000000000000000       0x14 build/nanos/obj/syscalls.o
 .ARM.exidx.text.os_sched_switch
                0x0000000000000000        0x8 build/nanos/obj/syscalls.o
 .text.os_sched_current_task
                0x0000000000000000       0x14 build/nanos/obj/syscalls.o
 .ARM.exidx.text.os_sched_current_task
                0x0000000000000000        0x8 build/nanos/obj/syscalls.o
 .text.os_allow_protected_ram
                0x0000000000000000       0x14 build/nanos/obj/syscalls.o
 .ARM.exidx.text.os_allow_protected_ram
                0x0000000000000000        0x8 build/nanos/obj/syscalls.o
 .text.os_deny_protected_ram
                0x0000000000000000       0x14 build/nanos/obj/syscalls.o
 .ARM.exidx.text.os_deny_protected_ram
                0x0000000000000000        0x8 build/nanos/obj/syscalls.o
 .text.os_allow_protected_flash
                0x0000000000000000       0x14 build/nanos/obj/syscalls.o
 .ARM.exidx.text.os_allow_protected_flash
                0x0000000000000000        0x8 build/nanos/obj/syscalls.o
 .text.os_deny_protected_flash
                0x0000000000000000       0x14 build/nanos/obj/syscalls.o
 .ARM.exidx.text.os_deny_protected_flash
                0x0000000000000000        0x8 build/nanos/obj/syscalls.o
 .llvm_addrsig  0x0000000000000000        0x0 build/nanos/obj/syscalls.o
 .text          0x0000000000000000        0x0 build/nanos/obj/u2f_impl.o
 .comment       0x0000000000000000       0x1d build/nanos/obj/u2f_impl.o
 .note.GNU-stack
                0x0000000000000000        0x0 build/nanos/obj/u2f_impl.o
 .ARM.attributes
                0x0000000000000000       0x45 build/nanos/obj/u2f_impl.o
 .llvm_addrsig  0x0000000000000000        0x0 build/nanos/obj/u2f_impl.o
 .text          0x0000000000000000        0x0 build/nanos/obj/u2f_io.o
 .comment       0x0000000000000000       0x1d build/nanos/obj/u2f_io.o
 .note.GNU-stack
                0x0000000000000000        0x0 build/nanos/obj/u2f_io.o
 .ARM.attributes
                0x0000000000000000       0x45 build/nanos/obj/u2f_io.o
 .llvm_addrsig  0x0000000000000000        0x0 build/nanos/obj/u2f_io.o
 .text          0x0000000000000000        0x0 build/nanos/obj/update_hashes_with_map_value.o
 .llvm_addrsig  0x0000000000000000        0x2 build/nanos/obj/update_hashes_with_map_value.o
 .text          0x0000000000000000        0x0 build/nanos/obj/usbd_ccid_cmd.o
 .comment       0x0000000000000000       0x1d build/nanos/obj/usbd_ccid_cmd.o
 .note.GNU-stack
                0x0000000000000000        0x0 build/nanos/obj/usbd_ccid_cmd.o
 .ARM.attributes
                0x0000000000000000       0x45 build/nanos/obj/usbd_ccid_cmd.o
 .llvm_addrsig  0x0000000000000000        0x0 build/nanos/obj/usbd_ccid_cmd.o
 .text          0x0000000000000000        0x0 build/nanos/obj/usbd_ccid_core.o
 .comment       0x0000000000000000       0x1d build/nanos/obj/usbd_ccid_core.o
 .note.GNU-stack
                0x0000000000000000        0x0 build/nanos/obj/usbd_ccid_core.o
 .ARM.attributes
                0x0000000000000000       0x45 build/nanos/obj/usbd_ccid_core.o
 .llvm_addrsig  0x0000000000000000        0x0 build/nanos/obj/usbd_ccid_core.o
 .text          0x0000000000000000        0x0 build/nanos/obj/usbd_ccid_if.o
 .comment       0x0000000000000000       0x1d build/nanos/obj/usbd_ccid_if.o
 .note.GNU-stack
                0x0000000000000000        0x0 build/nanos/obj/usbd_ccid_if.o
 .ARM.attributes
                0x0000000000000000       0x45 build/nanos/obj/usbd_ccid_if.o
 .llvm_addrsig  0x0000000000000000        0x0 build/nanos/obj/usbd_ccid_if.o
 .text          0x0000000000000000        0x0 build/nanos/obj/usbd_conf.o
 .text.USBD_LL_CloseEP
                0x0000000000000000       0x28 build/nanos/obj/usbd_conf.o
 .ARM.exidx.text.USBD_LL_CloseEP
                0x0000000000000000        0x8 build/nanos/obj/usbd_conf.o
 .text.USBD_LL_FlushEP
                0x0000000000000000        0x4 build/nanos/obj/usbd_conf.o
 .ARM.exidx.text.USBD_LL_FlushEP
                0x0000000000000000        0x8 build/nanos/obj/usbd_conf.o
 .llvm_addrsig  0x0000000000000000        0x1 build/nanos/obj/usbd_conf.o
 .text          0x0000000000000000        0x0 build/nanos/obj/usbd_core.o
 .text.USBD_RegisterClass
                0x0000000000000000       0x10 build/nanos/obj/usbd_core.o
 .ARM.exidx.text.USBD_RegisterClass
                0x0000000000000000        0x8 build/nanos/obj/usbd_core.o
 .text.USBD_Stop
                0x0000000000000000       0x3a build/nanos/obj/usbd_core.o
 .ARM.exidx.text.USBD_Stop
                0x0000000000000000        0x8 build/nanos/obj/usbd_core.o
 .text.USBD_RunTestMode
                0x0000000000000000        0x4 build/nanos/obj/usbd_core.o
 .ARM.exidx.text.USBD_RunTestMode
                0x0000000000000000        0x8 build/nanos/obj/usbd_core.o
 .text.USBD_LL_IsoINIncomplete
                0x0000000000000000        0x4 build/nanos/obj/usbd_core.o
 .ARM.exidx.text.USBD_LL_IsoINIncomplete
                0x0000000000000000        0x8 build/nanos/obj/usbd_core.o
 .text.USBD_LL_IsoOUTIncomplete
                0x0000000000000000        0x4 build/nanos/obj/usbd_core.o
 .ARM.exidx.text.USBD_LL_IsoOUTIncomplete
                0x0000000000000000        0x8 build/nanos/obj/usbd_core.o
 .text.USBD_LL_DevConnected
                0x0000000000000000        0x4 build/nanos/obj/usbd_core.o
 .ARM.exidx.text.USBD_LL_DevConnected
                0x0000000000000000        0x8 build/nanos/obj/usbd_core.o
 .text.USBD_LL_DevDisconnected
                0x0000000000000000        0xa build/nanos/obj/usbd_core.o
 .ARM.exidx.text.USBD_LL_DevDisconnected
                0x0000000000000000        0x8 build/nanos/obj/usbd_core.o
 .llvm_addrsig  0x0000000000000000        0x0 build/nanos/obj/usbd_core.o
 .text          0x0000000000000000        0x0 build/nanos/obj/usbd_ctlreq.o
 .text.USBD_CtlError
                0x0000000000000000        0x8 build/nanos/obj/usbd_ctlreq.o
 .ARM.exidx.text.USBD_CtlError
                0x0000000000000000        0x8 build/nanos/obj/usbd_ctlreq.o
 .text.USBD_GetString
                0x0000000000000000       0x3a build/nanos/obj/usbd_ctlreq.o
 .ARM.exidx.text.USBD_GetString
                0x0000000000000000        0x8 build/nanos/obj/usbd_ctlreq.o
 .text.USBD_GetLen
                0x0000000000000000       0x12 build/nanos/obj/usbd_ctlreq.o
 .ARM.exidx.text.USBD_GetLen
                0x0000000000000000        0x8 build/nanos/obj/usbd_ctlreq.o
 .llvm_addrsig  0x0000000000000000        0x0 build/nanos/obj/usbd_ctlreq.o
 .text          0x0000000000000000        0x0 build/nanos/obj/usbd_hid.o
 .llvm_addrsig  0x0000000000000000        0x0 build/nanos/obj/usbd_hid.o
 .text          0x0000000000000000        0x0 build/nanos/obj/usbd_impl.o
 .rodata.C_webusb_url_descriptor
                0x0000000000000000        0x3 build/nanos/obj/usbd_impl.o
 .llvm_addrsig  0x0000000000000000       0x29 build/nanos/obj/usbd_impl.o
 .text          0x0000000000000000        0x0 build/nanos/obj/usbd_ioreq.o
 .text.USBD_CtlPrepareRx
                0x0000000000000000       0x18 build/nanos/obj/usbd_ioreq.o
 .ARM.exidx.text.USBD_CtlPrepareRx
                0x0000000000000000        0x8 build/nanos/obj/usbd_ioreq.o
 .llvm_addrsig  0x0000000000000000        0x0 build/nanos/obj/usbd_ioreq.o
 .text          0x0000000000000000        0x0 build/nanos/obj/ux_flow_engine.o
 .text.ux_flow_get_current
                0x0000000000000000       0x40 build/nanos/obj/ux_flow_engine.o
 .ARM.exidx.text.ux_flow_get_current
                0x0000000000000000        0x8 build/nanos/obj/ux_flow_engine.o
 .text.ux_flow_next_no_display
                0x0000000000000000        0xa build/nanos/obj/ux_flow_engine.o
 .ARM.exidx.text.ux_flow_next_no_display
                0x0000000000000000        0x8 build/nanos/obj/ux_flow_engine.o
 .text.ux_flow_error
                0x0000000000000000       0x58 build/nanos/obj/ux_flow_engine.o
 .ARM.exidx.text.ux_flow_error
                0x0000000000000000        0x8 build/nanos/obj/ux_flow_engine.o
 .text.ux_flow_uninit
                0x0000000000000000       0x18 build/nanos/obj/ux_flow_engine.o
 .ARM.exidx.text.ux_flow_uninit
                0x0000000000000000        0x8 build/nanos/obj/ux_flow_engine.o
 .text.ux_flow_relayout
                0x0000000000000000       0x20 build/nanos/obj/ux_flow_engine.o
 .ARM.exidx.text.ux_flow_relayout
                0x0000000000000000        0x8 build/nanos/obj/ux_flow_engine.o
 .llvm_addrsig  0x0000000000000000        0x0 build/nanos/obj/ux_flow_engine.o
 .text          0x0000000000000000        0x0 build/nanos/obj/ux_layout_bb.o
 .text.ux_layout_bb_init
                0x0000000000000000       0x28 build/nanos/obj/ux_layout_bb.o
 .ARM.exidx.text.ux_layout_bb_init
                0x0000000000000000        0x8 build/nanos/obj/ux_layout_bb.o
 .llvm_addrsig  0x0000000000000000        0x5 build/nanos/obj/ux_layout_bb.o
 .text          0x0000000000000000        0x0 build/nanos/obj/ux_layout_bn.o
 .llvm_addrsig  0x0000000000000000        0x1 build/nanos/obj/ux_layout_bn.o
 .text          0x0000000000000000        0x0 build/nanos/obj/ux_layout_bnn.o
 .comment       0x0000000000000000       0x1d build/nanos/obj/ux_layout_bnn.o
 .note.GNU-stack
                0x0000000000000000        0x0 build/nanos/obj/ux_layout_bnn.o
 .ARM.attributes
                0x0000000000000000       0x45 build/nanos/obj/ux_layout_bnn.o
 .llvm_addrsig  0x0000000000000000        0x0 build/nanos/obj/ux_layout_bnn.o
 .text          0x0000000000000000        0x0 build/nanos/obj/ux_layout_bnnn.o
 .comment       0x0000000000000000       0x1d build/nanos/obj/ux_layout_bnnn.o
 .note.GNU-stack
                0x0000000000000000        0x0 build/nanos/obj/ux_layout_bnnn.o
 .ARM.attributes
                0x0000000000000000       0x45 build/nanos/obj/ux_layout_bnnn.o
 .llvm_addrsig  0x0000000000000000        0x0 build/nanos/obj/ux_layout_bnnn.o
 .text          0x0000000000000000        0x0 build/nanos/obj/ux_layout_nn.o
 .llvm_addrsig  0x0000000000000000        0x1 build/nanos/obj/ux_layout_nn.o
 .text          0x0000000000000000        0x0 build/nanos/obj/ux_layout_nnbnn.o
 .text.ux_layout_nnbnn_prepro
                0x0000000000000000       0x50 build/nanos/obj/ux_layout_nnbnn.o
 .ARM.exidx.text.ux_layout_nnbnn_prepro
                0x0000000000000000        0x8 build/nanos/obj/ux_layout_nnbnn.o
 .text.ux_layout_nnbnn_init
                0x0000000000000000       0x4c build/nanos/obj/ux_layout_nnbnn.o
 .ARM.exidx.text.ux_layout_nnbnn_init
                0x0000000000000000        0x8 build/nanos/obj/ux_layout_nnbnn.o
 .rodata.ux_layout_nnbnn_elements
                0x0000000000000000       0xc0 build/nanos/obj/ux_layout_nnbnn.o
 .comment       0x0000000000000000       0x1d build/nanos/obj/ux_layout_nnbnn.o
 .note.GNU-stack
                0x0000000000000000        0x0 build/nanos/obj/ux_layout_nnbnn.o
 .ARM.attributes
                0x0000000000000000       0x47 build/nanos/obj/ux_layout_nnbnn.o
 .llvm_addrsig  0x0000000000000000        0x6 build/nanos/obj/ux_layout_nnbnn.o
 .text          0x0000000000000000        0x0 build/nanos/obj/ux_layout_nnn.o
 .comment       0x0000000000000000       0x1d build/nanos/obj/ux_layout_nnn.o
 .note.GNU-stack
                0x0000000000000000        0x0 build/nanos/obj/ux_layout_nnn.o
 .ARM.attributes
                0x0000000000000000       0x45 build/nanos/obj/ux_layout_nnn.o
 .llvm_addrsig  0x0000000000000000        0x0 build/nanos/obj/ux_layout_nnn.o
 .text          0x0000000000000000        0x0 build/nanos/obj/ux_layout_nnnn.o
 .comment       0x0000000000000000       0x1d build/nanos/obj/ux_layout_nnnn.o
 .note.GNU-stack
                0x0000000000000000        0x0 build/nanos/obj/ux_layout_nnnn.o
 .ARM.attributes
                0x0000000000000000       0x45 build/nanos/obj/ux_layout_nnnn.o
 .llvm_addrsig  0x0000000000000000        0x0 build/nanos/obj/ux_layout_nnnn.o
 .text          0x0000000000000000        0x0 build/nanos/obj/ux_layout_paging.o
 .text.ux_layout_paging_redisplay_by_func
                0x0000000000000000       0x28 build/nanos/obj/ux_layout_paging.o
 .ARM.exidx.text.ux_layout_paging_redisplay_by_func
                0x0000000000000000        0x8 build/nanos/obj/ux_layout_paging.o
 .text.ux_layout_paging_button_callback_by_func
                0x0000000000000000       0x14 build/nanos/obj/ux_layout_paging.o
 .ARM.exidx.text.ux_layout_paging_button_callback_by_func
                0x0000000000000000        0x8 build/nanos/obj/ux_layout_paging.o
 .text.ux_layout_paging_prepro_by_func
                0x0000000000000000       0x20 build/nanos/obj/ux_layout_paging.o
 .ARM.exidx.text.ux_layout_paging_prepro_by_func
                0x0000000000000000        0x8 build/nanos/obj/ux_layout_paging.o
 .text.ux_layout_paging_reset
                0x0000000000000000       0x14 build/nanos/obj/ux_layout_paging.o
 .ARM.exidx.text.ux_layout_paging_reset
                0x0000000000000000        0x8 build/nanos/obj/ux_layout_paging.o
 .text.ux_layout_paging_func_init
                0x0000000000000000       0x24 build/nanos/obj/ux_layout_paging.o
 .ARM.exidx.text.ux_layout_paging_func_init
                0x0000000000000000        0x8 build/nanos/obj/ux_layout_paging.o
 .text.ux_layout_xx_paging_init
                0x0000000000000000       0x10 build/nanos/obj/ux_layout_paging.o
 .ARM.exidx.text.ux_layout_xx_paging_init
                0x0000000000000000        0x8 build/nanos/obj/ux_layout_paging.o
 .text.ux_layout_nn_paging_init
                0x0000000000000000       0x14 build/nanos/obj/ux_layout_paging.o
 .ARM.exidx.text.ux_layout_nn_paging_init
                0x0000000000000000        0x8 build/nanos/obj/ux_layout_paging.o
 .text.ux_layout_nb_paging_init
                0x0000000000000000       0x14 build/nanos/obj/ux_layout_paging.o
 .ARM.exidx.text.ux_layout_nb_paging_init
                0x0000000000000000        0x8 build/nanos/obj/ux_layout_paging.o
 .text.ux_layout_bn_paging_init
                0x0000000000000000       0x14 build/nanos/obj/ux_layout_paging.o
 .ARM.exidx.text.ux_layout_bn_paging_init
                0x0000000000000000        0x8 build/nanos/obj/ux_layout_paging.o
 .text.ux_layout_bb_paging_init
                0x0000000000000000       0x14 build/nanos/obj/ux_layout_paging.o
 .ARM.exidx.text.ux_layout_bb_paging_init
                0x0000000000000000        0x8 build/nanos/obj/ux_layout_paging.o
 .llvm_addrsig  0x0000000000000000        0x7 build/nanos/obj/ux_layout_paging.o
 .text          0x0000000000000000        0x0 build/nanos/obj/ux_layout_paging_compute.o
 .text.se_get_cropped_length
                0x0000000000000000       0x48 build/nanos/obj/ux_layout_paging_compute.o
 .ARM.exidx.text.se_get_cropped_length
                0x0000000000000000        0x8 build/nanos/obj/ux_layout_paging_compute.o
 .llvm_addrsig  0x0000000000000000        0x0 build/nanos/obj/ux_layout_paging_compute.o
 .text          0x0000000000000000        0x0 build/nanos/obj/ux_layout_pb.o
 .llvm_addrsig  0x0000000000000000        0x6 build/nanos/obj/ux_layout_pb.o
 .text          0x0000000000000000        0x0 build/nanos/obj/ux_layout_pbb.o
 .llvm_addrsig  0x0000000000000000        0x6 build/nanos/obj/ux_layout_pbb.o
 .text          0x0000000000000000        0x0 build/nanos/obj/ux_layout_pbn.o
 .text.ux_layout_pbn_prepro
                0x0000000000000000       0x20 build/nanos/obj/ux_layout_pbn.o
 .ARM.exidx.text.ux_layout_pbn_prepro
                0x0000000000000000        0x8 build/nanos/obj/ux_layout_pbn.o
 .text.ux_layout_pbn_init
                0x0000000000000000       0x28 build/nanos/obj/ux_layout_pbn.o
 .ARM.exidx.text.ux_layout_pbn_init
                0x0000000000000000        0x8 build/nanos/obj/ux_layout_pbn.o
 .comment       0x0000000000000000       0x1d build/nanos/obj/ux_layout_pbn.o
 .note.GNU-stack
                0x0000000000000000        0x0 build/nanos/obj/ux_layout_pbn.o
 .ARM.attributes
                0x0000000000000000       0x47 build/nanos/obj/ux_layout_pbn.o
 .llvm_addrsig  0x0000000000000000        0x1 build/nanos/obj/ux_layout_pbn.o
 .text          0x0000000000000000        0x0 build/nanos/obj/ux_layout_pn.o
 .llvm_addrsig  0x0000000000000000        0x6 build/nanos/obj/ux_layout_pn.o
 .text          0x0000000000000000        0x0 build/nanos/obj/ux_layout_pnn.o
 .llvm_addrsig  0x0000000000000000        0x1 build/nanos/obj/ux_layout_pnn.o
 .text          0x0000000000000000        0x0 build/nanos/obj/ux_layout_utils.o
 .text.ux_layout_set_timeout
                0x0000000000000000       0x28 build/nanos/obj/ux_layout_utils.o
 .ARM.exidx.text.ux_layout_set_timeout
                0x0000000000000000        0x8 build/nanos/obj/ux_layout_utils.o
 .text.ux_layout_ticker_callback
                0x0000000000000000       0x28 build/nanos/obj/ux_layout_utils.o
 .ARM.exidx.text.ux_layout_ticker_callback
                0x0000000000000000        0x8 build/nanos/obj/ux_layout_utils.o
 .llvm_addrsig  0x0000000000000000        0x2 build/nanos/obj/ux_layout_utils.o
 .text          0x0000000000000000        0x0 build/nanos/obj/ux_legacy.o
 .text.debug_wait_displayed
                0x0000000000000000       0x14 build/nanos/obj/ux_legacy.o
 .ARM.exidx.text.debug_wait_displayed
                0x0000000000000000        0x8 build/nanos/obj/ux_legacy.o
 .rodata.clear_element
                0x0000000000000000       0x20 build/nanos/obj/ux_legacy.o
 .rodata.str1.1
                0x0000000000000000        0xf build/nanos/obj/ux_legacy.o
 .rodata.printf_element
                0x0000000000000000       0x20 build/nanos/obj/ux_legacy.o
 .comment       0x0000000000000000       0x1d build/nanos/obj/ux_legacy.o
 .note.GNU-stack
                0x0000000000000000        0x0 build/nanos/obj/ux_legacy.o
 .ARM.attributes
                0x0000000000000000       0x47 build/nanos/obj/ux_legacy.o
 .llvm_addrsig  0x0000000000000000        0x1 build/nanos/obj/ux_legacy.o
 .text          0x0000000000000000        0x0 build/nanos/obj/ux_menulist.o
 .text.ux_menulist_button
                0x0000000000000000       0x70 build/nanos/obj/ux_menulist.o
 .ARM.exidx.text.ux_menulist_button
                0x0000000000000000        0x8 build/nanos/obj/ux_menulist.o
 .text.ux_menulist_refresh
                0x0000000000000000       0x44 build/nanos/obj/ux_menulist.o
 .ARM.exidx.text.ux_menulist_refresh
                0x0000000000000000        0x8 build/nanos/obj/ux_menulist.o
 .text.ux_menulist_init_select
                0x0000000000000000       0x40 build/nanos/obj/ux_menulist.o
 .ARM.exidx.text.ux_menulist_init_select
                0x0000000000000000        0x8 build/nanos/obj/ux_menulist.o
 .text.ux_menulist_init
                0x0000000000000000        0xa build/nanos/obj/ux_menulist.o
 .ARM.exidx.text.ux_menulist_init
                0x0000000000000000        0x8 build/nanos/obj/ux_menulist.o
 .rodata.ux_menulist_conststep
                0x0000000000000000       0x10 build/nanos/obj/ux_menulist.o
 .rodata.ux_menulist_constflow
                0x0000000000000000        0x8 build/nanos/obj/ux_menulist.o
 .comment       0x0000000000000000       0x1d build/nanos/obj/ux_menulist.o
 .note.GNU-stack
                0x0000000000000000        0x0 build/nanos/obj/ux_menulist.o
 .ARM.attributes
                0x0000000000000000       0x47 build/nanos/obj/ux_menulist.o
 .llvm_addrsig  0x0000000000000000        0x5 build/nanos/obj/ux_menulist.o
 .text          0x0000000000000000        0x0 build/nanos/obj/ux_stack.o
 .text.ux_stack_is_element_array_present
                0x0000000000000000       0x44 build/nanos/obj/ux_stack.o
 .ARM.exidx.text.ux_stack_is_element_array_present
                0x0000000000000000        0x8 build/nanos/obj/ux_stack.o
 .text.ux_stack_pop
                0x0000000000000000       0x4c build/nanos/obj/ux_stack.o
 .ARM.exidx.text.ux_stack_pop
                0x0000000000000000        0x8 build/nanos/obj/ux_stack.o
 .text.ux_stack_redisplay
                0x0000000000000000       0x34 build/nanos/obj/ux_stack.o
 .ARM.exidx.text.ux_stack_redisplay
                0x0000000000000000        0x8 build/nanos/obj/ux_stack.o
 .text.ux_stack_insert
                0x0000000000000000       0x2c build/nanos/obj/ux_stack.o
 .ARM.exidx.text.ux_stack_insert
                0x0000000000000000        0x8 build/nanos/obj/ux_stack.o
 .text.ux_stack_remove
                0x0000000000000000       0x14 build/nanos/obj/ux_stack.o
 .ARM.exidx.text.ux_stack_remove
                0x0000000000000000        0x8 build/nanos/obj/ux_stack.o
 .text.ux_stack_display_element_callback
                0x0000000000000000       0x34 build/nanos/obj/ux_stack.o
 .ARM.exidx.text.ux_stack_display_element_callback
                0x0000000000000000        0x8 build/nanos/obj/ux_stack.o
 .llvm_addrsig  0x0000000000000000        0x0 build/nanos/obj/ux_stack.o
 .text          0x0000000000000000        0x0 build/nanos/obj/varint.o
 .llvm_addrsig  0x0000000000000000        0x0 build/nanos/obj/varint.o
 .text          0x0000000000000000        0x0 build/nanos/obj/wallet.o
 .rodata.is_valid_miniscript_wrapper
                0x0000000000000000       0x1a build/nanos/obj/wallet.o
 .llvm_addrsig  0x0000000000000000        0x1 build/nanos/obj/wallet.o
 .text          0x0000000000000000        0x0 build/nanos/obj/write.o
 .text.write_u64_be
                0x0000000000000000       0x22 build/nanos/obj/write.o
 .ARM.exidx.text.write_u64_be
                0x0000000000000000        0x8 build/nanos/obj/write.o
 .llvm_addrsig  0x0000000000000000        0x0 build/nanos/obj/write.o
 .data          0x0000000000000000        0x0 /usr/lib/gcc/arm-none-eabi/10.3.0/thumb/v6-m/nofp/libgcc.a(_udivsi3.o)
 .bss           0x0000000000000000        0x0 /usr/lib/gcc/arm-none-eabi/10.3.0/thumb/v6-m/nofp/libgcc.a(_udivsi3.o)
 .text          0x0000000000000000       0xa8 /usr/lib/gcc/arm-none-eabi/10.3.0/thumb/v6-m/nofp/libgcc.a(_divsi3.o)
 .data          0x0000000000000000        0x0 /usr/lib/gcc/arm-none-eabi/10.3.0/thumb/v6-m/nofp/libgcc.a(_divsi3.o)
 .bss           0x0000000000000000        0x0 /usr/lib/gcc/arm-none-eabi/10.3.0/thumb/v6-m/nofp/libgcc.a(_divsi3.o)
 .ARM.attributes
                0x0000000000000000       0x1e /usr/lib/gcc/arm-none-eabi/10.3.0/thumb/v6-m/nofp/libgcc.a(_divsi3.o)
 .data          0x0000000000000000        0x0 /usr/lib/gcc/arm-none-eabi/10.3.0/thumb/v6-m/nofp/libgcc.a(_dvmd_tls.o)
 .bss           0x0000000000000000        0x0 /usr/lib/gcc/arm-none-eabi/10.3.0/thumb/v6-m/nofp/libgcc.a(_dvmd_tls.o)
 .text          0x0000000000000000       0x7c /usr/lib/gcc/arm-none-eabi/10.3.0/thumb/v6-m/nofp/libgcc.a(_arm_cmpdf2.o)
 .data          0x0000000000000000        0x0 /usr/lib/gcc/arm-none-eabi/10.3.0/thumb/v6-m/nofp/libgcc.a(_arm_cmpdf2.o)
 .bss           0x0000000000000000        0x0 /usr/lib/gcc/arm-none-eabi/10.3.0/thumb/v6-m/nofp/libgcc.a(_arm_cmpdf2.o)
 .ARM.attributes
                0x0000000000000000       0x1e /usr/lib/gcc/arm-none-eabi/10.3.0/thumb/v6-m/nofp/libgcc.a(_arm_cmpdf2.o)
 .text          0x0000000000000000       0x48 /usr/lib/gcc/arm-none-eabi/10.3.0/thumb/v6-m/nofp/libgcc.a(_aeabi_ldivmod.o)
 .data          0x0000000000000000        0x0 /usr/lib/gcc/arm-none-eabi/10.3.0/thumb/v6-m/nofp/libgcc.a(_aeabi_ldivmod.o)
 .bss           0x0000000000000000        0x0 /usr/lib/gcc/arm-none-eabi/10.3.0/thumb/v6-m/nofp/libgcc.a(_aeabi_ldivmod.o)
 .ARM.attributes
                0x0000000000000000       0x1e /usr/lib/gcc/arm-none-eabi/10.3.0/thumb/v6-m/nofp/libgcc.a(_aeabi_ldivmod.o)
 .text          0x0000000000000000       0x40 /usr/lib/gcc/arm-none-eabi/10.3.0/thumb/v6-m/nofp/libgcc.a(_aeabi_uldivmod.o)
 .data          0x0000000000000000        0x0 /usr/lib/gcc/arm-none-eabi/10.3.0/thumb/v6-m/nofp/libgcc.a(_aeabi_uldivmod.o)
 .bss           0x0000000000000000        0x0 /usr/lib/gcc/arm-none-eabi/10.3.0/thumb/v6-m/nofp/libgcc.a(_aeabi_uldivmod.o)
 .ARM.attributes
                0x0000000000000000       0x1e /usr/lib/gcc/arm-none-eabi/10.3.0/thumb/v6-m/nofp/libgcc.a(_aeabi_uldivmod.o)
 .text          0x0000000000000000        0x0 /usr/lib/gcc/arm-none-eabi/10.3.0/thumb/v6-m/nofp/libgcc.a(_muldi3.o)
 .data          0x0000000000000000        0x0 /usr/lib/gcc/arm-none-eabi/10.3.0/thumb/v6-m/nofp/libgcc.a(_muldi3.o)
 .bss           0x0000000000000000        0x0 /usr/lib/gcc/arm-none-eabi/10.3.0/thumb/v6-m/nofp/libgcc.a(_muldi3.o)
 .text          0x0000000000000000        0x0 /usr/lib/gcc/arm-none-eabi/10.3.0/thumb/v6-m/nofp/libgcc.a(_fixunsdfsi.o)
 .data          0x0000000000000000        0x0 /usr/lib/gcc/arm-none-eabi/10.3.0/thumb/v6-m/nofp/libgcc.a(_fixunsdfsi.o)
 .bss           0x0000000000000000        0x0 /usr/lib/gcc/arm-none-eabi/10.3.0/thumb/v6-m/nofp/libgcc.a(_fixunsdfsi.o)
 .text.__fixunsdfsi
                0x0000000000000000       0x38 /usr/lib/gcc/arm-none-eabi/10.3.0/thumb/v6-m/nofp/libgcc.a(_fixunsdfsi.o)
 .comment       0x0000000000000000       0x1c /usr/lib/gcc/arm-none-eabi/10.3.0/thumb/v6-m/nofp/libgcc.a(_fixunsdfsi.o)
 .ARM.attributes
                0x0000000000000000       0x2c /usr/lib/gcc/arm-none-eabi/10.3.0/thumb/v6-m/nofp/libgcc.a(_fixunsdfsi.o)
 .text          0x0000000000000000        0x0 /usr/lib/gcc/arm-none-eabi/10.3.0/thumb/v6-m/nofp/libgcc.a(_udivmoddi4.o)
 .data          0x0000000000000000        0x0 /usr/lib/gcc/arm-none-eabi/10.3.0/thumb/v6-m/nofp/libgcc.a(_udivmoddi4.o)
 .bss           0x0000000000000000        0x0 /usr/lib/gcc/arm-none-eabi/10.3.0/thumb/v6-m/nofp/libgcc.a(_udivmoddi4.o)
 .text.__udivmoddi4
                0x0000000000000000       0xde /usr/lib/gcc/arm-none-eabi/10.3.0/thumb/v6-m/nofp/libgcc.a(_udivmoddi4.o)
 .ARM.extab.text.__udivmoddi4
                0x0000000000000000        0x0 /usr/lib/gcc/arm-none-eabi/10.3.0/thumb/v6-m/nofp/libgcc.a(_udivmoddi4.o)
 .ARM.exidx.text.__udivmoddi4
                0x0000000000000000        0x8 /usr/lib/gcc/arm-none-eabi/10.3.0/thumb/v6-m/nofp/libgcc.a(_udivmoddi4.o)
 .comment       0x0000000000000000       0x1c /usr/lib/gcc/arm-none-eabi/10.3.0/thumb/v6-m/nofp/libgcc.a(_udivmoddi4.o)
 .ARM.attributes
                0x0000000000000000       0x2c /usr/lib/gcc/arm-none-eabi/10.3.0/thumb/v6-m/nofp/libgcc.a(_udivmoddi4.o)
 .text          0x0000000000000000        0x0 /usr/lib/gcc/arm-none-eabi/10.3.0/thumb/v6-m/nofp/libgcc.a(bpabi.o)
 .data          0x0000000000000000        0x0 /usr/lib/gcc/arm-none-eabi/10.3.0/thumb/v6-m/nofp/libgcc.a(bpabi.o)
 .bss           0x0000000000000000        0x0 /usr/lib/gcc/arm-none-eabi/10.3.0/thumb/v6-m/nofp/libgcc.a(bpabi.o)
 .text.__gnu_ldivmod_helper
                0x0000000000000000       0x30 /usr/lib/gcc/arm-none-eabi/10.3.0/thumb/v6-m/nofp/libgcc.a(bpabi.o)
 .comment       0x0000000000000000       0x1c /usr/lib/gcc/arm-none-eabi/10.3.0/thumb/v6-m/nofp/libgcc.a(bpabi.o)
 .ARM.attributes
                0x0000000000000000       0x2c /usr/lib/gcc/arm-none-eabi/10.3.0/thumb/v6-m/nofp/libgcc.a(bpabi.o)
 .text          0x0000000000000000        0x0 /usr/lib/gcc/arm-none-eabi/10.3.0/thumb/v6-m/nofp/libgcc.a(adddf3.o)
 .data          0x0000000000000000        0x0 /usr/lib/gcc/arm-none-eabi/10.3.0/thumb/v6-m/nofp/libgcc.a(adddf3.o)
 .bss           0x0000000000000000        0x0 /usr/lib/gcc/arm-none-eabi/10.3.0/thumb/v6-m/nofp/libgcc.a(adddf3.o)
 .text.__aeabi_dadd
                0x0000000000000000      0x5a4 /usr/lib/gcc/arm-none-eabi/10.3.0/thumb/v6-m/nofp/libgcc.a(adddf3.o)
 .comment       0x0000000000000000       0x1c /usr/lib/gcc/arm-none-eabi/10.3.0/thumb/v6-m/nofp/libgcc.a(adddf3.o)
 .ARM.attributes
                0x0000000000000000       0x2c /usr/lib/gcc/arm-none-eabi/10.3.0/thumb/v6-m/nofp/libgcc.a(adddf3.o)
 .text          0x0000000000000000        0x0 /usr/lib/gcc/arm-none-eabi/10.3.0/thumb/v6-m/nofp/libgcc.a(divdf3.o)
 .data          0x0000000000000000        0x0 /usr/lib/gcc/arm-none-eabi/10.3.0/thumb/v6-m/nofp/libgcc.a(divdf3.o)
 .bss           0x0000000000000000        0x0 /usr/lib/gcc/arm-none-eabi/10.3.0/thumb/v6-m/nofp/libgcc.a(divdf3.o)
 .text.__aeabi_ddiv
                0x0000000000000000      0x500 /usr/lib/gcc/arm-none-eabi/10.3.0/thumb/v6-m/nofp/libgcc.a(divdf3.o)
 .comment       0x0000000000000000       0x1c /usr/lib/gcc/arm-none-eabi/10.3.0/thumb/v6-m/nofp/libgcc.a(divdf3.o)
 .ARM.attributes
                0x0000000000000000       0x2c /usr/lib/gcc/arm-none-eabi/10.3.0/thumb/v6-m/nofp/libgcc.a(divdf3.o)
 .text          0x0000000000000000        0x0 /usr/lib/gcc/arm-none-eabi/10.3.0/thumb/v6-m/nofp/libgcc.a(eqdf2.o)
 .data          0x0000000000000000        0x0 /usr/lib/gcc/arm-none-eabi/10.3.0/thumb/v6-m/nofp/libgcc.a(eqdf2.o)
 .bss           0x0000000000000000        0x0 /usr/lib/gcc/arm-none-eabi/10.3.0/thumb/v6-m/nofp/libgcc.a(eqdf2.o)
 .text.__eqdf2  0x0000000000000000       0x74 /usr/lib/gcc/arm-none-eabi/10.3.0/thumb/v6-m/nofp/libgcc.a(eqdf2.o)
 .comment       0x0000000000000000       0x1c /usr/lib/gcc/arm-none-eabi/10.3.0/thumb/v6-m/nofp/libgcc.a(eqdf2.o)
 .ARM.attributes
                0x0000000000000000       0x2c /usr/lib/gcc/arm-none-eabi/10.3.0/thumb/v6-m/nofp/libgcc.a(eqdf2.o)
 .text          0x0000000000000000        0x0 /usr/lib/gcc/arm-none-eabi/10.3.0/thumb/v6-m/nofp/libgcc.a(gedf2.o)
 .data          0x0000000000000000        0x0 /usr/lib/gcc/arm-none-eabi/10.3.0/thumb/v6-m/nofp/libgcc.a(gedf2.o)
 .bss           0x0000000000000000        0x0 /usr/lib/gcc/arm-none-eabi/10.3.0/thumb/v6-m/nofp/libgcc.a(gedf2.o)
 .text.__gedf2  0x0000000000000000       0xb8 /usr/lib/gcc/arm-none-eabi/10.3.0/thumb/v6-m/nofp/libgcc.a(gedf2.o)
 .comment       0x0000000000000000       0x1c /usr/lib/gcc/arm-none-eabi/10.3.0/thumb/v6-m/nofp/libgcc.a(gedf2.o)
 .ARM.attributes
                0x0000000000000000       0x2c /usr/lib/gcc/arm-none-eabi/10.3.0/thumb/v6-m/nofp/libgcc.a(gedf2.o)
 .text          0x0000000000000000        0x0 /usr/lib/gcc/arm-none-eabi/10.3.0/thumb/v6-m/nofp/libgcc.a(ledf2.o)
 .data          0x0000000000000000        0x0 /usr/lib/gcc/arm-none-eabi/10.3.0/thumb/v6-m/nofp/libgcc.a(ledf2.o)
 .bss           0x0000000000000000        0x0 /usr/lib/gcc/arm-none-eabi/10.3.0/thumb/v6-m/nofp/libgcc.a(ledf2.o)
 .text.__ledf2  0x0000000000000000       0xb8 /usr/lib/gcc/arm-none-eabi/10.3.0/thumb/v6-m/nofp/libgcc.a(ledf2.o)
 .comment       0x0000000000000000       0x1c /usr/lib/gcc/arm-none-eabi/10.3.0/thumb/v6-m/nofp/libgcc.a(ledf2.o)
 .ARM.attributes
                0x0000000000000000       0x2c /usr/lib/gcc/arm-none-eabi/10.3.0/thumb/v6-m/nofp/libgcc.a(ledf2.o)
 .text          0x0000000000000000        0x0 /usr/lib/gcc/arm-none-eabi/10.3.0/thumb/v6-m/nofp/libgcc.a(muldf3.o)
 .data          0x0000000000000000        0x0 /usr/lib/gcc/arm-none-eabi/10.3.0/thumb/v6-m/nofp/libgcc.a(muldf3.o)
 .bss           0x0000000000000000        0x0 /usr/lib/gcc/arm-none-eabi/10.3.0/thumb/v6-m/nofp/libgcc.a(muldf3.o)
 .text.__aeabi_dmul
                0x0000000000000000      0x430 /usr/lib/gcc/arm-none-eabi/10.3.0/thumb/v6-m/nofp/libgcc.a(muldf3.o)
 .comment       0x0000000000000000       0x1c /usr/lib/gcc/arm-none-eabi/10.3.0/thumb/v6-m/nofp/libgcc.a(muldf3.o)
 .ARM.attributes
                0x0000000000000000       0x2c /usr/lib/gcc/arm-none-eabi/10.3.0/thumb/v6-m/nofp/libgcc.a(muldf3.o)
 .text          0x0000000000000000        0x0 /usr/lib/gcc/arm-none-eabi/10.3.0/thumb/v6-m/nofp/libgcc.a(subdf3.o)
 .data          0x0000000000000000        0x0 /usr/lib/gcc/arm-none-eabi/10.3.0/thumb/v6-m/nofp/libgcc.a(subdf3.o)
 .bss           0x0000000000000000        0x0 /usr/lib/gcc/arm-none-eabi/10.3.0/thumb/v6-m/nofp/libgcc.a(subdf3.o)
 .text.__aeabi_dsub
                0x0000000000000000      0x5ac /usr/lib/gcc/arm-none-eabi/10.3.0/thumb/v6-m/nofp/libgcc.a(subdf3.o)
 .comment       0x0000000000000000       0x1c /usr/lib/gcc/arm-none-eabi/10.3.0/thumb/v6-m/nofp/libgcc.a(subdf3.o)
 .ARM.attributes
                0x0000000000000000       0x2c /usr/lib/gcc/arm-none-eabi/10.3.0/thumb/v6-m/nofp/libgcc.a(subdf3.o)
 .text          0x0000000000000000        0x0 /usr/lib/gcc/arm-none-eabi/10.3.0/thumb/v6-m/nofp/libgcc.a(unorddf2.o)
 .data          0x0000000000000000        0x0 /usr/lib/gcc/arm-none-eabi/10.3.0/thumb/v6-m/nofp/libgcc.a(unorddf2.o)
 .bss           0x0000000000000000        0x0 /usr/lib/gcc/arm-none-eabi/10.3.0/thumb/v6-m/nofp/libgcc.a(unorddf2.o)
 .text.__aeabi_dcmpun
                0x0000000000000000       0x38 /usr/lib/gcc/arm-none-eabi/10.3.0/thumb/v6-m/nofp/libgcc.a(unorddf2.o)
 .comment       0x0000000000000000       0x1c /usr/lib/gcc/arm-none-eabi/10.3.0/thumb/v6-m/nofp/libgcc.a(unorddf2.o)
 .ARM.attributes
                0x0000000000000000       0x2c /usr/lib/gcc/arm-none-eabi/10.3.0/thumb/v6-m/nofp/libgcc.a(unorddf2.o)
 .text          0x0000000000000000        0x0 /usr/lib/gcc/arm-none-eabi/10.3.0/thumb/v6-m/nofp/libgcc.a(fixdfsi.o)
 .data          0x0000000000000000        0x0 /usr/lib/gcc/arm-none-eabi/10.3.0/thumb/v6-m/nofp/libgcc.a(fixdfsi.o)
 .bss           0x0000000000000000        0x0 /usr/lib/gcc/arm-none-eabi/10.3.0/thumb/v6-m/nofp/libgcc.a(fixdfsi.o)
 .text.__aeabi_d2iz
                0x0000000000000000       0x64 /usr/lib/gcc/arm-none-eabi/10.3.0/thumb/v6-m/nofp/libgcc.a(fixdfsi.o)
 .comment       0x0000000000000000       0x1c /usr/lib/gcc/arm-none-eabi/10.3.0/thumb/v6-m/nofp/libgcc.a(fixdfsi.o)
 .ARM.attributes
                0x0000000000000000       0x2c /usr/lib/gcc/arm-none-eabi/10.3.0/thumb/v6-m/nofp/libgcc.a(fixdfsi.o)
 .text          0x0000000000000000        0x0 /usr/lib/gcc/arm-none-eabi/10.3.0/thumb/v6-m/nofp/libgcc.a(floatsidf.o)
 .data          0x0000000000000000        0x0 /usr/lib/gcc/arm-none-eabi/10.3.0/thumb/v6-m/nofp/libgcc.a(floatsidf.o)
 .bss           0x0000000000000000        0x0 /usr/lib/gcc/arm-none-eabi/10.3.0/thumb/v6-m/nofp/libgcc.a(floatsidf.o)
 .text.__aeabi_i2d
                0x0000000000000000       0x58 /usr/lib/gcc/arm-none-eabi/10.3.0/thumb/v6-m/nofp/libgcc.a(floatsidf.o)
 .comment       0x0000000000000000       0x1c /usr/lib/gcc/arm-none-eabi/10.3.0/thumb/v6-m/nofp/libgcc.a(floatsidf.o)
 .ARM.attributes
                0x0000000000000000       0x2c /usr/lib/gcc/arm-none-eabi/10.3.0/thumb/v6-m/nofp/libgcc.a(floatsidf.o)
 .text          0x0000000000000000        0x0 /usr/lib/gcc/arm-none-eabi/10.3.0/thumb/v6-m/nofp/libgcc.a(floatunsidf.o)
 .data          0x0000000000000000        0x0 /usr/lib/gcc/arm-none-eabi/10.3.0/thumb/v6-m/nofp/libgcc.a(floatunsidf.o)
 .bss           0x0000000000000000        0x0 /usr/lib/gcc/arm-none-eabi/10.3.0/thumb/v6-m/nofp/libgcc.a(floatunsidf.o)
 .text.__aeabi_ui2d
                0x0000000000000000       0x40 /usr/lib/gcc/arm-none-eabi/10.3.0/thumb/v6-m/nofp/libgcc.a(floatunsidf.o)
 .comment       0x0000000000000000       0x1c /usr/lib/gcc/arm-none-eabi/10.3.0/thumb/v6-m/nofp/libgcc.a(floatunsidf.o)
 .ARM.attributes
                0x0000000000000000       0x2c /usr/lib/gcc/arm-none-eabi/10.3.0/thumb/v6-m/nofp/libgcc.a(floatunsidf.o)
 .text          0x0000000000000000       0x14 /usr/lib/gcc/arm-none-eabi/10.3.0/thumb/v6-m/nofp/libgcc.a(_thumb1_case_uhi.o)
 .data          0x0000000000000000        0x0 /usr/lib/gcc/arm-none-eabi/10.3.0/thumb/v6-m/nofp/libgcc.a(_thumb1_case_uhi.o)
 .bss           0x0000000000000000        0x0 /usr/lib/gcc/arm-none-eabi/10.3.0/thumb/v6-m/nofp/libgcc.a(_thumb1_case_uhi.o)
 .ARM.attributes
                0x0000000000000000       0x1e /usr/lib/gcc/arm-none-eabi/10.3.0/thumb/v6-m/nofp/libgcc.a(_thumb1_case_uhi.o)
 .text          0x0000000000000000       0x18 /usr/lib/gcc/arm-none-eabi/10.3.0/thumb/v6-m/nofp/libgcc.a(_lshrdi3.o)
 .data          0x0000000000000000        0x0 /usr/lib/gcc/arm-none-eabi/10.3.0/thumb/v6-m/nofp/libgcc.a(_lshrdi3.o)
 .bss           0x0000000000000000        0x0 /usr/lib/gcc/arm-none-eabi/10.3.0/thumb/v6-m/nofp/libgcc.a(_lshrdi3.o)
 .ARM.attributes
                0x0000000000000000       0x1e /usr/lib/gcc/arm-none-eabi/10.3.0/thumb/v6-m/nofp/libgcc.a(_lshrdi3.o)
 .text          0x0000000000000000       0x18 /usr/lib/gcc/arm-none-eabi/10.3.0/thumb/v6-m/nofp/libgcc.a(_ashldi3.o)
 .data          0x0000000000000000        0x0 /usr/lib/gcc/arm-none-eabi/10.3.0/thumb/v6-m/nofp/libgcc.a(_ashldi3.o)
 .bss           0x0000000000000000        0x0 /usr/lib/gcc/arm-none-eabi/10.3.0/thumb/v6-m/nofp/libgcc.a(_ashldi3.o)
 .ARM.attributes
                0x0000000000000000       0x1e /usr/lib/gcc/arm-none-eabi/10.3.0/thumb/v6-m/nofp/libgcc.a(_ashldi3.o)
 .text          0x0000000000000000       0x3c /usr/lib/gcc/arm-none-eabi/10.3.0/thumb/v6-m/nofp/libgcc.a(_clzsi2.o)
 .data          0x0000000000000000        0x0 /usr/lib/gcc/arm-none-eabi/10.3.0/thumb/v6-m/nofp/libgcc.a(_clzsi2.o)
 .bss           0x0000000000000000        0x0 /usr/lib/gcc/arm-none-eabi/10.3.0/thumb/v6-m/nofp/libgcc.a(_clzsi2.o)
 .ARM.attributes
                0x0000000000000000       0x1e /usr/lib/gcc/arm-none-eabi/10.3.0/thumb/v6-m/nofp/libgcc.a(_clzsi2.o)
 .text          0x0000000000000000       0x18 /usr/lib/gcc/arm-none-eabi/10.3.0/thumb/v6-m/nofp/libgcc.a(_clzdi2.o)
 .data          0x0000000000000000        0x0 /usr/lib/gcc/arm-none-eabi/10.3.0/thumb/v6-m/nofp/libgcc.a(_clzdi2.o)
 .bss           0x0000000000000000        0x0 /usr/lib/gcc/arm-none-eabi/10.3.0/thumb/v6-m/nofp/libgcc.a(_clzdi2.o)
 .ARM.attributes
                0x0000000000000000       0x1e /usr/lib/gcc/arm-none-eabi/10.3.0/thumb/v6-m/nofp/libgcc.a(_clzdi2.o)
 .text          0x0000000000000000        0x0 /usr/lib/gcc/arm-none-eabi/10.3.0/thumb/v6-m/nofp/libgcc.a(_divdi3.o)
 .data          0x0000000000000000        0x0 /usr/lib/gcc/arm-none-eabi/10.3.0/thumb/v6-m/nofp/libgcc.a(_divdi3.o)
 .bss           0x0000000000000000        0x0 /usr/lib/gcc/arm-none-eabi/10.3.0/thumb/v6-m/nofp/libgcc.a(_divdi3.o)
 .text.__divdi3
                0x0000000000000000      0x134 /usr/lib/gcc/arm-none-eabi/10.3.0/thumb/v6-m/nofp/libgcc.a(_divdi3.o)
 .ARM.extab.text.__divdi3
                0x0000000000000000        0x0 /usr/lib/gcc/arm-none-eabi/10.3.0/thumb/v6-m/nofp/libgcc.a(_divdi3.o)
 .ARM.exidx.text.__divdi3
                0x0000000000000000        0x8 /usr/lib/gcc/arm-none-eabi/10.3.0/thumb/v6-m/nofp/libgcc.a(_divdi3.o)
 .comment       0x0000000000000000       0x1c /usr/lib/gcc/arm-none-eabi/10.3.0/thumb/v6-m/nofp/libgcc.a(_divdi3.o)
 .ARM.attributes
                0x0000000000000000       0x2c /usr/lib/gcc/arm-none-eabi/10.3.0/thumb/v6-m/nofp/libgcc.a(_divdi3.o)
 .data          0x0000000000000000        0x0 /usr/lib/gcc/arm-none-eabi/10.3.0/../../../../arm-none-eabi/lib/thumb/v6-m/nofp/libc_nano.a(lib_a-aeabi_memclr.o)
 .bss           0x0000000000000000        0x0 /usr/lib/gcc/arm-none-eabi/10.3.0/../../../../arm-none-eabi/lib/thumb/v6-m/nofp/libc_nano.a(lib_a-aeabi_memclr.o)
 .data          0x0000000000000000        0x0 /usr/lib/gcc/arm-none-eabi/10.3.0/../../../../arm-none-eabi/lib/thumb/v6-m/nofp/libc_nano.a(lib_a-aeabi_memcpy.o)
 .bss           0x0000000000000000        0x0 /usr/lib/gcc/arm-none-eabi/10.3.0/../../../../arm-none-eabi/lib/thumb/v6-m/nofp/libc_nano.a(lib_a-aeabi_memcpy.o)
 .data          0x0000000000000000        0x0 /usr/lib/gcc/arm-none-eabi/10.3.0/../../../../arm-none-eabi/lib/thumb/v6-m/nofp/libc_nano.a(lib_a-aeabi_memmove.o)
 .bss           0x0000000000000000        0x0 /usr/lib/gcc/arm-none-eabi/10.3.0/../../../../arm-none-eabi/lib/thumb/v6-m/nofp/libc_nano.a(lib_a-aeabi_memmove.o)
 .data          0x0000000000000000        0x0 /usr/lib/gcc/arm-none-eabi/10.3.0/../../../../arm-none-eabi/lib/thumb/v6-m/nofp/libc_nano.a(lib_a-aeabi_memset.o)
 .bss           0x0000000000000000        0x0 /usr/lib/gcc/arm-none-eabi/10.3.0/../../../../arm-none-eabi/lib/thumb/v6-m/nofp/libc_nano.a(lib_a-aeabi_memset.o)
 .data          0x0000000000000000        0x0 /usr/lib/gcc/arm-none-eabi/10.3.0/../../../../arm-none-eabi/lib/thumb/v6-m/nofp/libc_nano.a(lib_a-explicit_bzero.o)
 .bss           0x0000000000000000        0x0 /usr/lib/gcc/arm-none-eabi/10.3.0/../../../../arm-none-eabi/lib/thumb/v6-m/nofp/libc_nano.a(lib_a-explicit_bzero.o)
 .data          0x0000000000000000        0x0 /usr/lib/gcc/arm-none-eabi/10.3.0/../../../../arm-none-eabi/lib/thumb/v6-m/nofp/libc_nano.a(lib_a-memcmp.o)
 .bss           0x0000000000000000        0x0 /usr/lib/gcc/arm-none-eabi/10.3.0/../../../../arm-none-eabi/lib/thumb/v6-m/nofp/libc_nano.a(lib_a-memcmp.o)
 .data          0x0000000000000000        0x0 /usr/lib/gcc/arm-none-eabi/10.3.0/../../../../arm-none-eabi/lib/thumb/v6-m/nofp/libc_nano.a(lib_a-memcpy-stub.o)
 .bss           0x0000000000000000        0x0 /usr/lib/gcc/arm-none-eabi/10.3.0/../../../../arm-none-eabi/lib/thumb/v6-m/nofp/libc_nano.a(lib_a-memcpy-stub.o)
 .data          0x0000000000000000        0x0 /usr/lib/gcc/arm-none-eabi/10.3.0/../../../../arm-none-eabi/lib/thumb/v6-m/nofp/libc_nano.a(lib_a-memmove.o)
 .bss           0x0000000000000000        0x0 /usr/lib/gcc/arm-none-eabi/10.3.0/../../../../arm-none-eabi/lib/thumb/v6-m/nofp/libc_nano.a(lib_a-memmove.o)
 .data          0x0000000000000000        0x0 /usr/lib/gcc/arm-none-eabi/10.3.0/../../../../arm-none-eabi/lib/thumb/v6-m/nofp/libc_nano.a(lib_a-memset.o)
 .bss           0x0000000000000000        0x0 /usr/lib/gcc/arm-none-eabi/10.3.0/../../../../arm-none-eabi/lib/thumb/v6-m/nofp/libc_nano.a(lib_a-memset.o)
 .data          0x0000000000000000        0x0 /usr/lib/gcc/arm-none-eabi/10.3.0/../../../../arm-none-eabi/lib/thumb/v6-m/nofp/libc_nano.a(lib_a-setjmp.o)
 .bss           0x0000000000000000        0x0 /usr/lib/gcc/arm-none-eabi/10.3.0/../../../../arm-none-eabi/lib/thumb/v6-m/nofp/libc_nano.a(lib_a-setjmp.o)
 .data          0x0000000000000000        0x0 /usr/lib/gcc/arm-none-eabi/10.3.0/../../../../arm-none-eabi/lib/thumb/v6-m/nofp/libc_nano.a(lib_a-strcpy.o)
 .bss           0x0000000000000000        0x0 /usr/lib/gcc/arm-none-eabi/10.3.0/../../../../arm-none-eabi/lib/thumb/v6-m/nofp/libc_nano.a(lib_a-strcpy.o)
 .data          0x0000000000000000        0x0 /usr/lib/gcc/arm-none-eabi/10.3.0/../../../../arm-none-eabi/lib/thumb/v6-m/nofp/libc_nano.a(lib_a-strlen-stub.o)
 .bss           0x0000000000000000        0x0 /usr/lib/gcc/arm-none-eabi/10.3.0/../../../../arm-none-eabi/lib/thumb/v6-m/nofp/libc_nano.a(lib_a-strlen-stub.o)
 .data          0x0000000000000000        0x0 /usr/lib/gcc/arm-none-eabi/10.3.0/../../../../arm-none-eabi/lib/thumb/v6-m/nofp/libc_nano.a(lib_a-strncmp.o)
 .bss           0x0000000000000000        0x0 /usr/lib/gcc/arm-none-eabi/10.3.0/../../../../arm-none-eabi/lib/thumb/v6-m/nofp/libc_nano.a(lib_a-strncmp.o)
 .data          0x0000000000000000        0x0 /usr/lib/gcc/arm-none-eabi/10.3.0/../../../../arm-none-eabi/lib/thumb/v6-m/nofp/libc_nano.a(lib_a-strncpy.o)
 .bss           0x0000000000000000        0x0 /usr/lib/gcc/arm-none-eabi/10.3.0/../../../../arm-none-eabi/lib/thumb/v6-m/nofp/libc_nano.a(lib_a-strncpy.o)
 .data          0x0000000000000000        0x0 /usr/lib/gcc/arm-none-eabi/10.3.0/../../../../arm-none-eabi/lib/thumb/v6-m/nofp/libc_nano.a(lib_a-bzero.o)
 .bss           0x0000000000000000        0x0 /usr/lib/gcc/arm-none-eabi/10.3.0/../../../../arm-none-eabi/lib/thumb/v6-m/nofp/libc_nano.a(lib_a-bzero.o)

Memory Configuration

Name             Origin             Length             Attributes
DISCARD          0x00000000d0000000 0x0000000000100000 xrw
FLASH            0x00000000c0d00000 0x0000000000064000 xr
SRAM             0x0000000020000200 0x0000000000001200 xrw
CXSRAM           0x0000000020001400 0x0000000000000400 xrw
*default*        0x0000000000000000 0xffffffffffffffff

Linker script and memory map

LOAD build/nanos/obj/apdu_parser.o
LOAD build/nanos/obj/base58.o
LOAD build/nanos/obj/bip32.o
LOAD build/nanos/obj/bip32_path.o
LOAD build/nanos/obj/btchip_bcd.o
LOAD build/nanos/obj/buffer.o
LOAD build/nanos/obj/check_merkle_tree_sorted.o
LOAD build/nanos/obj/checks.o
LOAD build/nanos/obj/compare_wallet_script_at_path.o
LOAD build/nanos/obj/crypto.o
LOAD build/nanos/obj/cx_stubs.o
LOAD build/nanos/obj/cxram_stash.o
LOAD build/nanos/obj/debug.o
LOAD build/nanos/obj/dispatcher.o
LOAD build/nanos/obj/display.o
LOAD build/nanos/obj/display_utils.o
LOAD build/nanos/obj/extract_bip32_derivation.o
LOAD build/nanos/obj/format.o
LOAD build/nanos/obj/get_extended_pubkey.o
LOAD build/nanos/obj/get_master_fingerprint.o
LOAD build/nanos/obj/get_merkle_leaf_element.o
LOAD build/nanos/obj/get_merkle_leaf_hash.o
LOAD build/nanos/obj/get_merkle_leaf_index.o
LOAD build/nanos/obj/get_merkle_preimage.o
LOAD build/nanos/obj/get_merkleized_map.o
LOAD build/nanos/obj/get_merkleized_map_value.o
LOAD build/nanos/obj/get_merkleized_map_value_hash.o
LOAD build/nanos/obj/get_preimage.o
LOAD build/nanos/obj/get_wallet_address.o
LOAD build/nanos/obj/glyphs.o
LOAD build/nanos/obj/handle_check_address.o
LOAD build/nanos/obj/handle_get_printable_amount.o
LOAD build/nanos/obj/handle_swap_sign_transaction.o
LOAD build/nanos/obj/io.o
LOAD build/nanos/obj/ledger_protocol.o
LOAD build/nanos/obj/main.o
LOAD build/nanos/obj/menu.o
LOAD build/nanos/obj/merkle.o
LOAD build/nanos/obj/os.o
LOAD build/nanos/obj/os_io_seproxyhal.o
LOAD build/nanos/obj/os_io_task.o
LOAD build/nanos/obj/os_io_usb.o
LOAD build/nanos/obj/os_printf.o
LOAD build/nanos/obj/parser.o
LOAD build/nanos/obj/pic.o
LOAD build/nanos/obj/policy.o
LOAD build/nanos/obj/printf.o
LOAD build/nanos/obj/psbt_parse_rawtx.o
LOAD build/nanos/obj/read.o
LOAD build/nanos/obj/register_wallet.o
LOAD build/nanos/obj/script.o
LOAD build/nanos/obj/segwit_addr.o
LOAD build/nanos/obj/sign_message.o
LOAD build/nanos/obj/sign_psbt.o
LOAD build/nanos/obj/stream_merkle_leaf_element.o
LOAD build/nanos/obj/stream_merkleized_map_value.o
LOAD build/nanos/obj/stream_preimage.o
LOAD build/nanos/obj/svc_call.o
LOAD build/nanos/obj/svc_cx_call.o
LOAD build/nanos/obj/swap_globals.o
LOAD build/nanos/obj/syscalls.o
LOAD build/nanos/obj/u2f_impl.o
LOAD build/nanos/obj/u2f_io.o
LOAD build/nanos/obj/update_hashes_with_map_value.o
LOAD build/nanos/obj/usbd_ccid_cmd.o
LOAD build/nanos/obj/usbd_ccid_core.o
LOAD build/nanos/obj/usbd_ccid_if.o
LOAD build/nanos/obj/usbd_conf.o
LOAD build/nanos/obj/usbd_core.o
LOAD build/nanos/obj/usbd_ctlreq.o
LOAD build/nanos/obj/usbd_hid.o
LOAD build/nanos/obj/usbd_impl.o
LOAD build/nanos/obj/usbd_ioreq.o
LOAD build/nanos/obj/ux_flow_engine.o
LOAD build/nanos/obj/ux_layout_bb.o
LOAD build/nanos/obj/ux_layout_bn.o
LOAD build/nanos/obj/ux_layout_bnn.o
LOAD build/nanos/obj/ux_layout_bnnn.o
LOAD build/nanos/obj/ux_layout_nn.o
LOAD build/nanos/obj/ux_layout_nnbnn.o
LOAD build/nanos/obj/ux_layout_nnn.o
LOAD build/nanos/obj/ux_layout_nnnn.o
LOAD build/nanos/obj/ux_layout_paging.o
LOAD build/nanos/obj/ux_layout_paging_compute.o
LOAD build/nanos/obj/ux_layout_pb.o
LOAD build/nanos/obj/ux_layout_pbb.o
LOAD build/nanos/obj/ux_layout_pbn.o
LOAD build/nanos/obj/ux_layout_pn.o
LOAD build/nanos/obj/ux_layout_pnn.o
LOAD build/nanos/obj/ux_layout_utils.o
LOAD build/nanos/obj/ux_legacy.o
LOAD build/nanos/obj/ux_menulist.o
LOAD build/nanos/obj/ux_stack.o
LOAD build/nanos/obj/varint.o
LOAD build/nanos/obj/wallet.o
LOAD build/nanos/obj/write.o
LOAD /usr/lib/gcc/arm-none-eabi/10.3.0/../../../../arm-none-eabi/lib/thumb/v6-m/nofp/libm.a
LOAD /usr/lib/gcc/arm-none-eabi/10.3.0/thumb/v6-m/nofp/libgcc.a
LOAD /usr/lib/gcc/arm-none-eabi/10.3.0/../../../../arm-none-eabi/lib/thumb/v6-m/nofp/libc_nano.a
                0x0000000000000c00                stack_size = 0xc00
START GROUP
LOAD /usr/lib/gcc/arm-none-eabi/10.3.0/thumb/v6-m/nofp/libgcc.a
LOAD /usr/lib/gcc/arm-none-eabi/10.3.0/../../../../arm-none-eabi/lib/thumb/v6-m/nofp/libg_nano.a
LOAD /usr/lib/gcc/arm-none-eabi/10.3.0/../../../../arm-none-eabi/lib/thumb/v6-m/nofp/libc_nano.a
END GROUP
START GROUP
LOAD /usr/lib/gcc/arm-none-eabi/10.3.0/thumb/v6-m/nofp/libgcc.a
LOAD /usr/lib/gcc/arm-none-eabi/10.3.0/../../../../arm-none-eabi/lib/thumb/v6-m/nofp/libc_nano.a
END GROUP
                0x0000000000000040                PAGE_SIZE = 0x40
                0x0000000000000c00                STACK_SIZE = DEFINED (stack_size)?stack_size:0x400
                0x0000000020001400                END_STACK = (ORIGIN (SRAM) + LENGTH (SRAM))

.text           0x00000000c0d00000     0xe640
                0x00000000c0d00000                _text = .
                0x00000000c0d00000                _nvram_start = .
 *(.boot*)
 .boot          0x00000000c0d00000       0x2c build/nanos/obj/main.o
                0x00000000c0d00000                main
 *(.text*)
 .text.apdu_parser
                0x00000000c0d0002c       0x34 build/nanos/obj/apdu_parser.o
                0x00000000c0d0002c                apdu_parser
 .text.base58_decode
                0x00000000c0d00060       0xfc build/nanos/obj/base58.o
                0x00000000c0d00060                base58_decode
 .text.base58_encode
                0x00000000c0d0015c       0xf0 build/nanos/obj/base58.o
                0x00000000c0d0015c                base58_encode
 .text.bip32_path_read
                0x00000000c0d0024c       0x3a build/nanos/obj/bip32.o
                0x00000000c0d0024c                bip32_path_read
 *fill*         0x00000000c0d00286        0x2 00
 .text.bip32_path_format
                0x00000000c0d00288       0xfc build/nanos/obj/bip32.o
                0x00000000c0d00288                bip32_path_format
 .text.is_pubkey_path_standard
                0x00000000c0d00384       0x5a build/nanos/obj/bip32.o
                0x00000000c0d00384                is_pubkey_path_standard
 *fill*         0x00000000c0d003de        0x2 00
 .text.is_address_path_standard
                0x00000000c0d003e0       0x48 build/nanos/obj/bip32.o
                0x00000000c0d003e0                is_address_path_standard
 .text.get_bip44_purpose
                0x00000000c0d00428       0x26 build/nanos/obj/bip32.o
                0x00000000c0d00428                get_bip44_purpose
 .text.parse_serialized_path
                0x00000000c0d0044e       0x3a build/nanos/obj/bip32_path.o
                0x00000000c0d0044e                parse_serialized_path
 .text.btchip_convert_hex_amount_to_displayable_no_globals
                0x00000000c0d00488      0x126 build/nanos/obj/btchip_bcd.o
                0x00000000c0d00488                btchip_convert_hex_amount_to_displayable_no_globals
 .text.buffer_can_read
                0x00000000c0d005ae       0x12 build/nanos/obj/buffer.o
                0x00000000c0d005ae                buffer_can_read
 .text.buffer_seek_set
                0x00000000c0d005c0       0x14 build/nanos/obj/buffer.o
                0x00000000c0d005c0                buffer_seek_set
 .text.buffer_seek_cur
                0x00000000c0d005d4       0x18 build/nanos/obj/buffer.o
                0x00000000c0d005d4                buffer_seek_cur
 .text.buffer_seek_end
                0x00000000c0d005ec       0x16 build/nanos/obj/buffer.o
                0x00000000c0d005ec                buffer_seek_end
 .text.buffer_read_u8
                0x00000000c0d00602       0x2c build/nanos/obj/buffer.o
                0x00000000c0d00602                buffer_read_u8
 .text.buffer_peek
                0x00000000c0d0062e       0x16 build/nanos/obj/buffer.o
                0x00000000c0d0062e                buffer_peek
 .text.buffer_peek_n
                0x00000000c0d00644       0x22 build/nanos/obj/buffer.o
                0x00000000c0d00644                buffer_peek_n
 .text.buffer_read_u32
                0x00000000c0d00666       0x48 build/nanos/obj/buffer.o
                0x00000000c0d00666                buffer_read_u32
 .text.buffer_read_varint
                0x00000000c0d006ae       0x36 build/nanos/obj/buffer.o
                0x00000000c0d006ae                buffer_read_varint
 .text.buffer_read_bip32_path
                0x00000000c0d006e4       0x2e build/nanos/obj/buffer.o
                0x00000000c0d006e4                buffer_read_bip32_path
 .text.buffer_read_bytes
                0x00000000c0d00712       0x38 build/nanos/obj/buffer.o
                0x00000000c0d00712                buffer_read_bytes
 .text.buffer_write_bytes
                0x00000000c0d0074a       0x34 build/nanos/obj/buffer.o
                0x00000000c0d0074a                buffer_write_bytes
 .text.buffer_alloc
                0x00000000c0d0077e       0x40 build/nanos/obj/buffer.o
                0x00000000c0d0077e                buffer_alloc
 .text.call_check_merkle_tree_sorted_with_callback
                0x00000000c0d007be       0x9a build/nanos/obj/check_merkle_tree_sorted.o
                0x00000000c0d007be                call_check_merkle_tree_sorted_with_callback
 .text.compare_wallet_script_at_path
                0x00000000c0d00858       0x4a build/nanos/obj/compare_wallet_script_at_path.o
                0x00000000c0d00858                compare_wallet_script_at_path
 .text.crypto_derive_private_key
                0x00000000c0d008a2       0x88 build/nanos/obj/crypto.o
                0x00000000c0d008a2                crypto_derive_private_key
 *fill*         0x00000000c0d0092a        0x2 00
 .text.bip32_CKDpub
                0x00000000c0d0092c      0x104 build/nanos/obj/crypto.o
                0x00000000c0d0092c                bip32_CKDpub
 .text.cx_math_cmp
                0x00000000c0d00a30       0x16 build/nanos/obj/crypto.o
 *fill*         0x00000000c0d00a46        0x2 00
 .text.secp256k1_point
                0x00000000c0d00a48       0x40 build/nanos/obj/crypto.o
 .text.crypto_get_uncompressed_pubkey
                0x00000000c0d00a88       0x94 build/nanos/obj/crypto.o
                0x00000000c0d00a88                crypto_get_uncompressed_pubkey
 .text.cx_ecfp_add_point
                0x00000000c0d00b1c       0x2a build/nanos/obj/crypto.o
 .text.crypto_get_key_fingerprint
                0x00000000c0d00b46       0x1a build/nanos/obj/crypto.o
                0x00000000c0d00b46                crypto_get_key_fingerprint
 .text.crypto_ripemd160
                0x00000000c0d00b60       0x30 build/nanos/obj/crypto.o
                0x00000000c0d00b60                crypto_ripemd160
 .text.crypto_hash160
                0x00000000c0d00b90       0x20 build/nanos/obj/crypto.o
                0x00000000c0d00b90                crypto_hash160
 .text.cx_math_powm
                0x00000000c0d00bb0       0x20 build/nanos/obj/crypto.o
 .text.cx_math_addm
                0x00000000c0d00bd0       0x14 build/nanos/obj/crypto.o
 .text.cx_math_sub
                0x00000000c0d00be4       0x18 build/nanos/obj/crypto.o
 .text.crypto_get_checksum
                0x00000000c0d00bfc       0x32 build/nanos/obj/crypto.o
                0x00000000c0d00bfc                crypto_get_checksum
 .text.crypto_get_compressed_pubkey_at_path
                0x00000000c0d00c2e       0xcc build/nanos/obj/crypto.o
                0x00000000c0d00c2e                crypto_get_compressed_pubkey_at_path
 .text.cx_ecfp_generate_pair
                0x00000000c0d00cfa       0x18 build/nanos/obj/crypto.o
 .text.crypto_get_master_key_fingerprint
                0x00000000c0d00d12       0x1c build/nanos/obj/crypto.o
                0x00000000c0d00d12                crypto_get_master_key_fingerprint
 .text.crypto_derive_symmetric_key
                0x00000000c0d00d2e       0x2e build/nanos/obj/crypto.o
                0x00000000c0d00d2e                crypto_derive_symmetric_key
 .text.get_serialized_extended_pubkey_at_path
                0x00000000c0d00d5c       0xa8 build/nanos/obj/crypto.o
                0x00000000c0d00d5c                get_serialized_extended_pubkey_at_path
 .text.base58_encode_address
                0x00000000c0d00e04       0x62 build/nanos/obj/crypto.o
                0x00000000c0d00e04                base58_encode_address
 .text.crypto_ecdsa_sign_sha256_hash_with_key
                0x00000000c0d00e66       0xf2 build/nanos/obj/crypto.o
                0x00000000c0d00e66                crypto_ecdsa_sign_sha256_hash_with_key
 .text.crypto_tr_tagged_hash_init
                0x00000000c0d00f58       0x44 build/nanos/obj/crypto.o
                0x00000000c0d00f58                crypto_tr_tagged_hash_init
 .text.crypto_hash_update
                0x00000000c0d00f9c       0x12 build/nanos/obj/crypto.o
 .text.crypto_hash_digest
                0x00000000c0d00fae       0x14 build/nanos/obj/crypto.o
 *fill*         0x00000000c0d00fc2        0x2 00
 .text.crypto_tr_tapleaf_hash_init
                0x00000000c0d00fc4       0x14 build/nanos/obj/crypto.o
                0x00000000c0d00fc4                crypto_tr_tapleaf_hash_init
 .text.crypto_tr_combine_taptree_hashes
                0x00000000c0d00fd8       0x40 build/nanos/obj/crypto.o
                0x00000000c0d00fd8                crypto_tr_combine_taptree_hashes
 .text.crypto_tr_tagged_hash
                0x00000000c0d01018       0x44 build/nanos/obj/crypto.o
 .text.crypto_tr_tweak_pubkey
                0x00000000c0d0105c      0x124 build/nanos/obj/crypto.o
                0x00000000c0d0105c                crypto_tr_tweak_pubkey
 .text.crypto_tr_tweak_seckey
                0x00000000c0d01180       0xdc build/nanos/obj/crypto.o
                0x00000000c0d01180                crypto_tr_tweak_seckey
 .text.cx_hash  0x00000000c0d0125c       0x22 build/nanos/obj/crypto.o
 *fill*         0x00000000c0d0127e        0x2 00
 .text.cx_ecdsa_sign_no_throw
                0x00000000c0d01280        0xc build/nanos/obj/cx_stubs.o
                0x00000000c0d01280                cx_ecdsa_sign_no_throw
 .text.cx_ecfp_add_point_no_throw
                0x00000000c0d0128c        0xc build/nanos/obj/cx_stubs.o
                0x00000000c0d0128c                cx_ecfp_add_point_no_throw
 .text.cx_ecfp_generate_pair_no_throw
                0x00000000c0d01298        0xc build/nanos/obj/cx_stubs.o
                0x00000000c0d01298                cx_ecfp_generate_pair_no_throw
 .text.cx_ecfp_init_private_key_no_throw
                0x00000000c0d012a4        0xc build/nanos/obj/cx_stubs.o
                0x00000000c0d012a4                cx_ecfp_init_private_key_no_throw
 .text.cx_ecfp_scalar_mult_no_throw
                0x00000000c0d012b0        0xc build/nanos/obj/cx_stubs.o
                0x00000000c0d012b0                cx_ecfp_scalar_mult_no_throw
 .text.cx_ecschnorr_sign_no_throw
                0x00000000c0d012bc        0xc build/nanos/obj/cx_stubs.o
                0x00000000c0d012bc                cx_ecschnorr_sign_no_throw
 .text.cx_hash_get_size
                0x00000000c0d012c8        0xc build/nanos/obj/cx_stubs.o
                0x00000000c0d012c8                cx_hash_get_size
 .text.cx_hash_no_throw
                0x00000000c0d012d4        0xc build/nanos/obj/cx_stubs.o
                0x00000000c0d012d4                cx_hash_no_throw
 .text.cx_hash_sha256
                0x00000000c0d012e0        0xc build/nanos/obj/cx_stubs.o
                0x00000000c0d012e0                cx_hash_sha256
 .text.cx_hmac_sha256
                0x00000000c0d012ec        0xc build/nanos/obj/cx_stubs.o
                0x00000000c0d012ec                cx_hmac_sha256
 .text.cx_hmac_sha512
                0x00000000c0d012f8        0xc build/nanos/obj/cx_stubs.o
                0x00000000c0d012f8                cx_hmac_sha512
 .text.cx_math_addm_no_throw
                0x00000000c0d01304        0xc build/nanos/obj/cx_stubs.o
                0x00000000c0d01304                cx_math_addm_no_throw
 .text.cx_math_cmp_no_throw
                0x00000000c0d01310        0xc build/nanos/obj/cx_stubs.o
                0x00000000c0d01310                cx_math_cmp_no_throw
 .text.cx_math_powm_no_throw
                0x00000000c0d0131c        0xc build/nanos/obj/cx_stubs.o
                0x00000000c0d0131c                cx_math_powm_no_throw
 .text.cx_math_sub_no_throw
                0x00000000c0d01328        0xc build/nanos/obj/cx_stubs.o
                0x00000000c0d01328                cx_math_sub_no_throw
 .text.cx_ripemd160_final
                0x00000000c0d01334        0xc build/nanos/obj/cx_stubs.o
                0x00000000c0d01334                cx_ripemd160_final
 .text.cx_ripemd160_init_no_throw
                0x00000000c0d01340        0xc build/nanos/obj/cx_stubs.o
                0x00000000c0d01340                cx_ripemd160_init_no_throw
 .text.cx_ripemd160_update
                0x00000000c0d0134c        0xc build/nanos/obj/cx_stubs.o
                0x00000000c0d0134c                cx_ripemd160_update
 .text.cx_rng_no_throw
                0x00000000c0d01358        0xc build/nanos/obj/cx_stubs.o
                0x00000000c0d01358                cx_rng_no_throw
 .text.cx_sha256_final
                0x00000000c0d01364        0xc build/nanos/obj/cx_stubs.o
                0x00000000c0d01364                cx_sha256_final
 .text.cx_sha256_init_no_throw
                0x00000000c0d01370        0xc build/nanos/obj/cx_stubs.o
                0x00000000c0d01370                cx_sha256_init_no_throw
 .text.cx_sha256_update
                0x00000000c0d0137c        0xc build/nanos/obj/cx_stubs.o
                0x00000000c0d0137c                cx_sha256_update
 .text.cx_x448  0x00000000c0d01388       0x14 build/nanos/obj/cx_stubs.o
                0x00000000c0d01388                cx_x448
 .text.get_cxram_buffer
                0x00000000c0d0139c        0x8 build/nanos/obj/cxram_stash.o
                0x00000000c0d0139c                get_cxram_buffer
 .text.apdu_dispatcher
                0x00000000c0d013a4      0x108 build/nanos/obj/dispatcher.o
                0x00000000c0d013a4                apdu_dispatcher
 .text.add_to_response
                0x00000000c0d014ac        0x8 build/nanos/obj/dispatcher.o
 .text.finalize_response
                0x00000000c0d014b4       0x10 build/nanos/obj/dispatcher.o
 .text.process_interruption
                0x00000000c0d014c4       0x80 build/nanos/obj/dispatcher.o
 .text.send_response
                0x00000000c0d01544        0x8 build/nanos/obj/dispatcher.o
 .text.set_ui_dirty
                0x00000000c0d0154c        0xc build/nanos/obj/dispatcher.o
 .text.ux_display_reject_if_not_sure_step_validateinit
                0x00000000c0d01558       0x10 build/nanos/obj/display.o
                0x00000000c0d01558                ux_display_reject_if_not_sure_step_validateinit
 .text.ux_display_approve_step_validateinit
                0x00000000c0d01568       0x10 build/nanos/obj/display.o
                0x00000000c0d01568                ux_display_approve_step_validateinit
 .text.ux_display_continue_step_validateinit
                0x00000000c0d01578       0x10 build/nanos/obj/display.o
                0x00000000c0d01578                ux_display_continue_step_validateinit
 .text.ux_display_reject_step_validateinit
                0x00000000c0d01588       0x10 build/nanos/obj/display.o
                0x00000000c0d01588                ux_display_reject_step_validateinit
 .text.ux_accept_and_send_step_validateinit
                0x00000000c0d01598       0x10 build/nanos/obj/display.o
                0x00000000c0d01598                ux_accept_and_send_step_validateinit
 .text.ux_sign_message_accept_new_validateinit
                0x00000000c0d015a8       0x10 build/nanos/obj/display.o
                0x00000000c0d015a8                ux_sign_message_accept_new_validateinit
 .text.io_ui_process
                0x00000000c0d015b8       0x48 build/nanos/obj/display.o
                0x00000000c0d015b8                io_ui_process
 .text.ui_display_pubkey
                0x00000000c0d01600       0x44 build/nanos/obj/display.o
                0x00000000c0d01600                ui_display_pubkey
 .text.ui_display_message_hash
                0x00000000c0d01644       0x34 build/nanos/obj/display.o
                0x00000000c0d01644                ui_display_message_hash
 .text.ui_display_register_wallet
                0x00000000c0d01678       0x44 build/nanos/obj/display.o
                0x00000000c0d01678                ui_display_register_wallet
 .text.ui_display_policy_map_cosigner_pubkey
                0x00000000c0d016bc       0x4c build/nanos/obj/display.o
                0x00000000c0d016bc                ui_display_policy_map_cosigner_pubkey
 .text.ui_display_wallet_address
                0x00000000c0d01708       0x48 build/nanos/obj/display.o
                0x00000000c0d01708                ui_display_wallet_address
 .text.ui_authorize_wallet_spend
                0x00000000c0d01750       0x28 build/nanos/obj/display.o
                0x00000000c0d01750                ui_authorize_wallet_spend
 .text.ui_warn_external_inputs
                0x00000000c0d01778       0x1c build/nanos/obj/display.o
                0x00000000c0d01778                ui_warn_external_inputs
 .text.ui_warn_unverified_segwit_inputs
                0x00000000c0d01794       0x1c build/nanos/obj/display.o
                0x00000000c0d01794                ui_warn_unverified_segwit_inputs
 .text.ui_warn_nondefault_sighash
                0x00000000c0d017b0       0x1c build/nanos/obj/display.o
                0x00000000c0d017b0                ui_warn_nondefault_sighash
 .text.ui_validate_output
                0x00000000c0d017cc       0x54 build/nanos/obj/display.o
                0x00000000c0d017cc                ui_validate_output
 .text.ui_validate_transaction
                0x00000000c0d01820       0x2c build/nanos/obj/display.o
                0x00000000c0d01820                ui_validate_transaction
 .text.format_sats_amount
                0x00000000c0d0184c       0xf0 build/nanos/obj/display_utils.o
                0x00000000c0d0184c                format_sats_amount
 .text.div10    0x00000000c0d0193c       0xa4 build/nanos/obj/display_utils.o
 .text.extract_bip32_derivation
                0x00000000c0d019e0       0x88 build/nanos/obj/extract_bip32_derivation.o
                0x00000000c0d019e0                extract_bip32_derivation
 .text.fpt_der_data_len_callback
                0x00000000c0d01a68        0x4 build/nanos/obj/extract_bip32_derivation.o
 .text.fpt_der_data_callback
                0x00000000c0d01a6c       0x9a build/nanos/obj/extract_bip32_derivation.o
 *fill*         0x00000000c0d01b06        0x2 00
 .text.handler_get_extended_pubkey
                0x00000000c0d01b08      0x1b8 build/nanos/obj/get_extended_pubkey.o
                0x00000000c0d01b08                handler_get_extended_pubkey
 .text.handler_get_master_fingerprint
                0x00000000c0d01cc0       0x5c build/nanos/obj/get_master_fingerprint.o
                0x00000000c0d01cc0                handler_get_master_fingerprint
 .text.call_get_merkle_leaf_element
                0x00000000c0d01d1c       0x24 build/nanos/obj/get_merkle_leaf_element.o
                0x00000000c0d01d1c                call_get_merkle_leaf_element
 .text.call_get_merkle_leaf_hash
                0x00000000c0d01d40      0x190 build/nanos/obj/get_merkle_leaf_hash.o
                0x00000000c0d01d40                call_get_merkle_leaf_hash
 .text.call_get_merkle_leaf_index
                0x00000000c0d01ed0       0xa8 build/nanos/obj/get_merkle_leaf_index.o
                0x00000000c0d01ed0                call_get_merkle_leaf_index
 .text.call_get_merkle_preimage
                0x00000000c0d01f78      0x1ea build/nanos/obj/get_merkle_preimage.o
                0x00000000c0d01f78                call_get_merkle_preimage
 .text.crypto_hash_update
                0x00000000c0d02162       0x12 build/nanos/obj/get_merkle_preimage.o
 .text.cx_hash  0x00000000c0d02174       0x22 build/nanos/obj/get_merkle_preimage.o
 .text.call_get_merkleized_map_with_callback
                0x00000000c0d02196       0x7a build/nanos/obj/get_merkleized_map.o
                0x00000000c0d02196                call_get_merkleized_map_with_callback
 .text.call_get_merkleized_map_value
                0x00000000c0d02210       0x46 build/nanos/obj/get_merkleized_map_value.o
                0x00000000c0d02210                call_get_merkleized_map_value
 .text.call_get_merkleized_map_value_hash
                0x00000000c0d02256       0x42 build/nanos/obj/get_merkleized_map_value_hash.o
                0x00000000c0d02256                call_get_merkleized_map_value_hash
 .text.call_get_preimage
                0x00000000c0d02298      0x1a8 build/nanos/obj/get_preimage.o
                0x00000000c0d02298                call_get_preimage
 .text.crypto_hash_update
                0x00000000c0d02440       0x12 build/nanos/obj/get_preimage.o
 .text.cx_hash  0x00000000c0d02452       0x22 build/nanos/obj/get_preimage.o
 .text.handler_get_wallet_address
                0x00000000c0d02474      0x2a0 build/nanos/obj/get_wallet_address.o
                0x00000000c0d02474                handler_get_wallet_address
 .text.get_address_from_compressed_public_key
                0x00000000c0d02714       0xcc build/nanos/obj/handle_check_address.o
                0x00000000c0d02714                get_address_from_compressed_public_key
 .text.handle_check_address
                0x00000000c0d027e0       0x7c build/nanos/obj/handle_check_address.o
                0x00000000c0d027e0                handle_check_address
 .text.handle_get_printable_amount
                0x00000000c0d0285c       0x4c build/nanos/obj/handle_get_printable_amount.o
                0x00000000c0d0285c                handle_get_printable_amount
 .text.copy_transaction_parameters
                0x00000000c0d028a8       0x88 build/nanos/obj/handle_swap_sign_transaction.o
                0x00000000c0d028a8                copy_transaction_parameters
 .text.io_seproxyhal_display
                0x00000000c0d02930        0x8 build/nanos/obj/io.o
                0x00000000c0d02930                io_seproxyhal_display
 .text.io_start_interruption_timeout
                0x00000000c0d02938       0x20 build/nanos/obj/io.o
                0x00000000c0d02938                io_start_interruption_timeout
 .text.io_clear_interruption_timeout
                0x00000000c0d02958       0x10 build/nanos/obj/io.o
                0x00000000c0d02958                io_clear_interruption_timeout
 .text.io_start_processing_timeout
                0x00000000c0d02968       0x20 build/nanos/obj/io.o
                0x00000000c0d02968                io_start_processing_timeout
 .text.io_clear_processing_timeout
                0x00000000c0d02988       0x10 build/nanos/obj/io.o
                0x00000000c0d02988                io_clear_processing_timeout
 .text.io_reset_timeouts
                0x00000000c0d02998       0x1c build/nanos/obj/io.o
                0x00000000c0d02998                io_reset_timeouts
 .text.io_event
                0x00000000c0d029b4      0x52c build/nanos/obj/io.o
                0x00000000c0d029b4                io_event
 .text.io_exchange_al
                0x00000000c0d02ee0       0x44 build/nanos/obj/io.o
                0x00000000c0d02ee0                io_exchange_al
 .text.io_add_to_response
                0x00000000c0d02f24       0x58 build/nanos/obj/io.o
                0x00000000c0d02f24                io_add_to_response
 .text.io_finalize_response
                0x00000000c0d02f7c       0x3c build/nanos/obj/io.o
                0x00000000c0d02f7c                io_finalize_response
 .text.io_set_response
                0x00000000c0d02fb8       0x20 build/nanos/obj/io.o
                0x00000000c0d02fb8                io_set_response
 .text.io_confirm_response
                0x00000000c0d02fd8       0x18 build/nanos/obj/io.o
                0x00000000c0d02fd8                io_confirm_response
 .text.io_send_response
                0x00000000c0d02ff0        0xc build/nanos/obj/io.o
                0x00000000c0d02ff0                io_send_response
 .text.io_send_sw
                0x00000000c0d02ffc        0xe build/nanos/obj/io.o
                0x00000000c0d02ffc                io_send_sw
 *fill*         0x00000000c0d0300a        0x2 00
 .text.app_main
                0x00000000c0d0300c       0xa8 build/nanos/obj/main.o
                0x00000000c0d0300c                app_main
 .text.app_exit
                0x00000000c0d030b4       0x40 build/nanos/obj/main.o
                0x00000000c0d030b4                app_exit
 .text.coin_main
                0x00000000c0d030f4       0xbc build/nanos/obj/main.o
                0x00000000c0d030f4                coin_main
 .text.swap_library_main
                0x00000000c0d031b0       0xc4 build/nanos/obj/main.o
                0x00000000c0d031b0                swap_library_main
 .text.ux_menu_about_step_validateinit
                0x00000000c0d03274        0x8 build/nanos/obj/menu.o
                0x00000000c0d03274                ux_menu_about_step_validateinit
 .text.ui_menu_about
                0x00000000c0d0327c       0x14 build/nanos/obj/menu.o
                0x00000000c0d0327c                ui_menu_about
 .text.ux_menu_exit_step_validateinit
                0x00000000c0d03290        0xa build/nanos/obj/menu.o
                0x00000000c0d03290                ux_menu_exit_step_validateinit
 *fill*         0x00000000c0d0329a        0x2 00
 .text.ui_menu_main
                0x00000000c0d0329c       0x24 build/nanos/obj/menu.o
                0x00000000c0d0329c                ui_menu_main
 .text.ux_menu_back_step_validateinit
                0x00000000c0d032c0        0x8 build/nanos/obj/menu.o
                0x00000000c0d032c0                ux_menu_back_step_validateinit
 .text.merkle_compute_element_hash
                0x00000000c0d032c8       0x44 build/nanos/obj/merkle.o
                0x00000000c0d032c8                merkle_compute_element_hash
 .text.crypto_hash_update
                0x00000000c0d0330c       0x12 build/nanos/obj/merkle.o
 *fill*         0x00000000c0d0331e        0x2 00
 .text.merkle_combine_hashes
                0x00000000c0d03320       0x4c build/nanos/obj/merkle.o
                0x00000000c0d03320                merkle_combine_hashes
 .text.merkle_get_ith_direction
                0x00000000c0d0336c       0x52 build/nanos/obj/merkle.o
                0x00000000c0d0336c                merkle_get_ith_direction
 .text.cx_hash  0x00000000c0d033be       0x22 build/nanos/obj/merkle.o
 .text.os_boot  0x00000000c0d033e0        0xa build/nanos/obj/os.o
                0x00000000c0d033e0                os_boot
 .text.os_longjmp
                0x00000000c0d033ea        0xc build/nanos/obj/os.o
                0x00000000c0d033ea                os_longjmp
 .text.os_secure_memcmp
                0x00000000c0d033f6       0x2e build/nanos/obj/os.o
                0x00000000c0d033f6                os_secure_memcmp
 .text.io_seproxyhal_general_status
                0x00000000c0d03424       0x14 build/nanos/obj/os_io_seproxyhal.o
                0x00000000c0d03424                io_seproxyhal_general_status
 .text.io_seproxyhal_handle_usb_event
                0x00000000c0d03438       0x64 build/nanos/obj/os_io_seproxyhal.o
                0x00000000c0d03438                io_seproxyhal_handle_usb_event
 .text.io_seproxyhal_get_ep_rx_size
                0x00000000c0d0349c       0x18 build/nanos/obj/os_io_seproxyhal.o
                0x00000000c0d0349c                io_seproxyhal_get_ep_rx_size
 .text.io_seproxyhal_handle_usb_ep_xfer_event
                0x00000000c0d034b4       0x64 build/nanos/obj/os_io_seproxyhal.o
                0x00000000c0d034b4                io_seproxyhal_handle_usb_ep_xfer_event
 .text.io_usb_send_ep
                0x00000000c0d03518       0x4c build/nanos/obj/os_io_seproxyhal.o
                0x00000000c0d03518                io_usb_send_ep
 .text.io_usb_send_apdu_data
                0x00000000c0d03564       0x10 build/nanos/obj/os_io_seproxyhal.o
                0x00000000c0d03564                io_usb_send_apdu_data
 .text.io_usb_send_apdu_data_ep0x83
                0x00000000c0d03574       0x10 build/nanos/obj/os_io_seproxyhal.o
                0x00000000c0d03574                io_usb_send_apdu_data_ep0x83
 .text.io_seproxyhal_handle_capdu_event
                0x00000000c0d03584       0x3c build/nanos/obj/os_io_seproxyhal.o
                0x00000000c0d03584                io_seproxyhal_handle_capdu_event
 .text.io_seproxyhal_handle_event
                0x00000000c0d035c0       0x80 build/nanos/obj/os_io_seproxyhal.o
                0x00000000c0d035c0                io_seproxyhal_handle_event
 .text.io_seproxyhal_init
                0x00000000c0d03640       0x3c build/nanos/obj/os_io_seproxyhal.o
                0x00000000c0d03640                io_seproxyhal_init
 .text.io_seproxyhal_init_ux
                0x00000000c0d0367c        0x2 build/nanos/obj/os_io_seproxyhal.o
                0x00000000c0d0367c                io_seproxyhal_init_ux
 *fill*         0x00000000c0d0367e        0x2 00
 .text.io_seproxyhal_init_button
                0x00000000c0d03680       0x10 build/nanos/obj/os_io_seproxyhal.o
                0x00000000c0d03680                io_seproxyhal_init_button
 .text.io_seproxyhal_display_icon
                0x00000000c0d03690       0x9c build/nanos/obj/os_io_seproxyhal.o
                0x00000000c0d03690                io_seproxyhal_display_icon
 .text.io_seproxyhal_display_default
                0x00000000c0d0372c       0x98 build/nanos/obj/os_io_seproxyhal.o
                0x00000000c0d0372c                io_seproxyhal_display_default
 .text.io_seproxyhal_button_push
                0x00000000c0d037c4       0x60 build/nanos/obj/os_io_seproxyhal.o
                0x00000000c0d037c4                io_seproxyhal_button_push
 .text.io_seproxyhal_se_reset
                0x00000000c0d03824       0x10 build/nanos/obj/os_io_seproxyhal.o
                0x00000000c0d03824                io_seproxyhal_se_reset
 .text.os_io_seproxyhal_get_app_name_and_version
                0x00000000c0d03834       0x44 build/nanos/obj/os_io_seproxyhal.o
                0x00000000c0d03834                os_io_seproxyhal_get_app_name_and_version
 .text.io_exchange
                0x00000000c0d03878      0x234 build/nanos/obj/os_io_seproxyhal.o
                0x00000000c0d03878                io_exchange
 .text.os_io_seph_recv_and_process
                0x00000000c0d03aac       0x40 build/nanos/obj/os_io_seproxyhal.o
                0x00000000c0d03aac                os_io_seph_recv_and_process
 .text.io_usb_hid_receive
                0x00000000c0d03aec      0x148 build/nanos/obj/os_io_usb.o
                0x00000000c0d03aec                io_usb_hid_receive
 .text.io_usb_hid_init
                0x00000000c0d03c34       0x1c build/nanos/obj/os_io_usb.o
                0x00000000c0d03c34                io_usb_hid_init
 .text.io_usb_hid_sent
                0x00000000c0d03c50       0xb8 build/nanos/obj/os_io_usb.o
                0x00000000c0d03c50                io_usb_hid_sent
 .text.io_usb_hid_send
                0x00000000c0d03d08       0x34 build/nanos/obj/os_io_usb.o
                0x00000000c0d03d08                io_usb_hid_send
 .text.snprintf
                0x00000000c0d03d3c      0x394 build/nanos/obj/os_printf.o
                0x00000000c0d03d3c                snprintf
 .text.dbuffer_get_length
                0x00000000c0d040d0       0x14 build/nanos/obj/parser.o
                0x00000000c0d040d0                dbuffer_get_length
 .text.dbuffer_can_read
                0x00000000c0d040e4       0x14 build/nanos/obj/parser.o
                0x00000000c0d040e4                dbuffer_can_read
 .text.dbuffer_read_bytes
                0x00000000c0d040f8       0x50 build/nanos/obj/parser.o
                0x00000000c0d040f8                dbuffer_read_bytes
 .text.dbuffer_read_u8
                0x00000000c0d04148        0xa build/nanos/obj/parser.o
                0x00000000c0d04148                dbuffer_read_u8
 .text.dbuffer_read_varint
                0x00000000c0d04152       0x96 build/nanos/obj/parser.o
                0x00000000c0d04152                dbuffer_read_varint
 .text.parser_consolidate_buffers
                0x00000000c0d041e8       0x52 build/nanos/obj/parser.o
                0x00000000c0d041e8                parser_consolidate_buffers
 .text.parser_run
                0x00000000c0d0423a       0x3a build/nanos/obj/parser.o
                0x00000000c0d0423a                parser_run
 .text.pic_internal
                0x00000000c0d04274       0x10 build/nanos/obj/pic.o
                0x00000000c0d04274                pic_internal
 .text.pic      0x00000000c0d04284       0x1c build/nanos/obj/pic.o
                0x00000000c0d04284                pic
 .text.read_and_parse_wallet_policy
                0x00000000c0d042a0       0x58 build/nanos/obj/policy.o
                0x00000000c0d042a0                read_and_parse_wallet_policy
 .text.compute_taptree_hash
                0x00000000c0d042f8       0x1a build/nanos/obj/policy.o
                0x00000000c0d042f8                compute_taptree_hash
 .text.compute_tapleaf_hash
                0x00000000c0d04312       0x78 build/nanos/obj/policy.o
 .text.compute_and_combine_taptree_child_hashes
                0x00000000c0d0438a       0x4c build/nanos/obj/policy.o
 .text.get_wallet_script
                0x00000000c0d043d6      0x18c build/nanos/obj/policy.o
                0x00000000c0d043d6                get_wallet_script
 .text.get_derived_pubkey
                0x00000000c0d04562       0x50 build/nanos/obj/policy.o
 *fill*         0x00000000c0d045b2        0x2 00
 .text.get_wallet_internal_script_hash
                0x00000000c0d045b4      0x408 build/nanos/obj/policy.o
                0x00000000c0d045b4                get_wallet_internal_script_hash
 .text.crypto_hash_digest
                0x00000000c0d049bc       0x14 build/nanos/obj/policy.o
 .text.crypto_hash_update_u8
                0x00000000c0d049d0       0x10 build/nanos/obj/policy.o
 .text.crypto_hash_update
                0x00000000c0d049e0       0x12 build/nanos/obj/policy.o
 .text.execute_processor
                0x00000000c0d049f2       0x3a build/nanos/obj/policy.o
 .text.process_generic_node
                0x00000000c0d04a2c      0x14c build/nanos/obj/policy.o
 .text.process_pkh_wpkh_node
                0x00000000c0d04b78       0xa0 build/nanos/obj/policy.o
 .text.process_thresh_node
                0x00000000c0d04c18       0x76 build/nanos/obj/policy.o
 .text.process_multi_sortedmulti_node
                0x00000000c0d04c8e      0x104 build/nanos/obj/policy.o
 .text.process_multi_a_sortedmulti_a_node
                0x00000000c0d04d92      0x10e build/nanos/obj/policy.o
 .text.get_policy_address_type
                0x00000000c0d04ea0       0x34 build/nanos/obj/policy.o
                0x00000000c0d04ea0                get_policy_address_type
 .text.compute_wallet_hmac
                0x00000000c0d04ed4       0x70 build/nanos/obj/policy.o
                0x00000000c0d04ed4                compute_wallet_hmac
 .text.check_wallet_hmac
                0x00000000c0d04f44       0x8c build/nanos/obj/policy.o
                0x00000000c0d04f44                check_wallet_hmac
 .text.get_key_placeholder_by_index
                0x00000000c0d04fd0      0x1f6 build/nanos/obj/policy.o
                0x00000000c0d04fd0                get_key_placeholder_by_index
 .text.get_key_placeholder_by_index_in_tree
                0x00000000c0d051c6       0x78 build/nanos/obj/policy.o
 *fill*         0x00000000c0d0523e        0x2 00
 .text.is_policy_sane
                0x00000000c0d05240      0x170 build/nanos/obj/policy.o
                0x00000000c0d05240                is_policy_sane
 .text.get_xpub_from_merkle_tree
                0x00000000c0d053b0       0x4e build/nanos/obj/policy.o
 .text.get_extended_pubkey
                0x00000000c0d053fe       0x72 build/nanos/obj/policy.o
 .text.cx_hash  0x00000000c0d05470       0x22 build/nanos/obj/policy.o
 .text.update_output_u8
                0x00000000c0d05492       0x10 build/nanos/obj/policy.o
 *fill*         0x00000000c0d054a2        0x2 00
 .text.update_output_op_v
                0x00000000c0d054a4       0x40 build/nanos/obj/policy.o
 .text.update_output
                0x00000000c0d054e4       0x1a build/nanos/obj/policy.o
 .text.update_output_push_u32
                0x00000000c0d054fe       0x70 build/nanos/obj/policy.o
 .text.state_stack_push
                0x00000000c0d0556e       0x22 build/nanos/obj/policy.o
 .text.cmp_arrays
                0x00000000c0d05590       0x1e build/nanos/obj/policy.o
 *fill*         0x00000000c0d055ae        0x2 00
 .text.call_psbt_parse_rawtx
                0x00000000c0d055b0       0x94 build/nanos/obj/psbt_parse_rawtx.o
                0x00000000c0d055b0                call_psbt_parse_rawtx
 .text.cb_process_data
                0x00000000c0d05644       0x60 build/nanos/obj/psbt_parse_rawtx.o
 .text.parse_rawtx_version
                0x00000000c0d056a4       0x24 build/nanos/obj/psbt_parse_rawtx.o
 .text.parse_rawtx_check_segwit
                0x00000000c0d056c8       0x72 build/nanos/obj/psbt_parse_rawtx.o
 .text.parse_rawtx_input_count
                0x00000000c0d0573a       0x24 build/nanos/obj/psbt_parse_rawtx.o
 .text.parse_rawtx_inputs_init
                0x00000000c0d0575e       0x12 build/nanos/obj/psbt_parse_rawtx.o
 .text.parse_rawtx_inputs
                0x00000000c0d05770       0x54 build/nanos/obj/psbt_parse_rawtx.o
 .text.parse_rawtx_output_count
                0x00000000c0d057c4       0x24 build/nanos/obj/psbt_parse_rawtx.o
 .text.parse_rawtx_outputs_init
                0x00000000c0d057e8       0x12 build/nanos/obj/psbt_parse_rawtx.o
 *fill*         0x00000000c0d057fa        0x2 00
 .text.parse_rawtx_outputs
                0x00000000c0d057fc       0x54 build/nanos/obj/psbt_parse_rawtx.o
 .text.parse_rawtx_witnesses_init
                0x00000000c0d05850        0xc build/nanos/obj/psbt_parse_rawtx.o
 .text.parse_rawtx_witnesses
                0x00000000c0d0585c       0xba build/nanos/obj/psbt_parse_rawtx.o
 .text.parse_rawtx_locktime
                0x00000000c0d05916       0x24 build/nanos/obj/psbt_parse_rawtx.o
 .text.crypto_hash_update
                0x00000000c0d0593a       0x12 build/nanos/obj/psbt_parse_rawtx.o
 .text.cx_hash  0x00000000c0d0594c       0x22 build/nanos/obj/psbt_parse_rawtx.o
 .text.crypto_hash_update_varint
                0x00000000c0d0596e       0x1a build/nanos/obj/psbt_parse_rawtx.o
 .text.parse_rawtxinput_txid
                0x00000000c0d05988       0x2a build/nanos/obj/psbt_parse_rawtx.o
 .text.parse_rawtxinput_vout
                0x00000000c0d059b2       0x26 build/nanos/obj/psbt_parse_rawtx.o
 .text.parse_rawtxinput_scriptsig_size
                0x00000000c0d059d8       0x26 build/nanos/obj/psbt_parse_rawtx.o
 .text.parse_rawtxinput_scriptsig_init
                0x00000000c0d059fe        0x8 build/nanos/obj/psbt_parse_rawtx.o
 .text.parse_rawtxinput_scriptsig
                0x00000000c0d05a06       0x44 build/nanos/obj/psbt_parse_rawtx.o
 .text.parse_rawtxinput_sequence
                0x00000000c0d05a4a       0x26 build/nanos/obj/psbt_parse_rawtx.o
 .text.parse_rawtxoutput_value
                0x00000000c0d05a70       0x48 build/nanos/obj/psbt_parse_rawtx.o
 .text.parse_rawtxoutput_scriptpubkey_size
                0x00000000c0d05ab8       0x3a build/nanos/obj/psbt_parse_rawtx.o
 .text.parse_rawtxoutput_scriptpubkey_init
                0x00000000c0d05af2        0x8 build/nanos/obj/psbt_parse_rawtx.o
 .text.parse_rawtxoutput_scriptpubkey
                0x00000000c0d05afa       0x6e build/nanos/obj/psbt_parse_rawtx.o
 .text.read_u32_be
                0x00000000c0d05b68       0x18 build/nanos/obj/read.o
                0x00000000c0d05b68                read_u32_be
 .text.read_u64_be
                0x00000000c0d05b80       0x30 build/nanos/obj/read.o
                0x00000000c0d05b80                read_u64_be
 .text.read_u16_le
                0x00000000c0d05bb0        0xe build/nanos/obj/read.o
                0x00000000c0d05bb0                read_u16_le
 .text.read_u32_le
                0x00000000c0d05bbe       0x18 build/nanos/obj/read.o
                0x00000000c0d05bbe                read_u32_le
 .text.read_u64_le
                0x00000000c0d05bd6       0x2c build/nanos/obj/read.o
                0x00000000c0d05bd6                read_u64_le
 *fill*         0x00000000c0d05c02        0x2 00
 .text.handler_register_wallet
                0x00000000c0d05c04      0x214 build/nanos/obj/register_wallet.o
                0x00000000c0d05c04                handler_register_wallet
 .text.get_push_script_size
                0x00000000c0d05e18       0x2c build/nanos/obj/script.o
                0x00000000c0d05e18                get_push_script_size
 .text.get_script_type
                0x00000000c0d05e44       0x9a build/nanos/obj/script.o
                0x00000000c0d05e44                get_script_type
 *fill*         0x00000000c0d05ede        0x2 00
 .text.get_script_address
                0x00000000c0d05ee0       0x80 build/nanos/obj/script.o
                0x00000000c0d05ee0                get_script_address
 .text.format_opscript_script
                0x00000000c0d05f60       0xf8 build/nanos/obj/script.o
                0x00000000c0d05f60                format_opscript_script
 .text.bech32_encode
                0x00000000c0d06058       0xec build/nanos/obj/segwit_addr.o
                0x00000000c0d06058                bech32_encode
 .text.bech32_polymod_step
                0x00000000c0d06144       0x4c build/nanos/obj/segwit_addr.o
 .text.segwit_addr_encode
                0x00000000c0d06190       0x62 build/nanos/obj/segwit_addr.o
                0x00000000c0d06190                segwit_addr_encode
 .text.convert_bits
                0x00000000c0d061f2       0x94 build/nanos/obj/segwit_addr.o
 *fill*         0x00000000c0d06286        0x2 00
 .text.handler_sign_message
                0x00000000c0d06288      0x214 build/nanos/obj/sign_message.o
                0x00000000c0d06288                handler_sign_message
 .text.crypto_hash_update
                0x00000000c0d0649c       0x12 build/nanos/obj/sign_message.o
 .text.crypto_hash_digest
                0x00000000c0d064ae       0x14 build/nanos/obj/sign_message.o
 .text.cx_hash  0x00000000c0d064c2       0x22 build/nanos/obj/sign_message.o
 .text.handler_sign_psbt
                0x00000000c0d064e4       0xa4 build/nanos/obj/sign_psbt.o
                0x00000000c0d064e4                handler_sign_psbt
 .text.init_global_state
                0x00000000c0d06588      0x2d0 build/nanos/obj/sign_psbt.o
 .text.preprocess_inputs
                0x00000000c0d06858      0x26c build/nanos/obj/sign_psbt.o
 .text.show_alerts
                0x00000000c0d06ac4       0x88 build/nanos/obj/sign_psbt.o
 .text.process_outputs
                0x00000000c0d06b4c      0x160 build/nanos/obj/sign_psbt.o
 .text.confirm_transaction
                0x00000000c0d06cac       0x9c build/nanos/obj/sign_psbt.o
 .text.sign_transaction
                0x00000000c0d06d48      0x118 build/nanos/obj/sign_psbt.o
 .text.find_first_internal_key_placeholder
                0x00000000c0d06e60       0x5c build/nanos/obj/sign_psbt.o
 .text.input_keys_callback
                0x00000000c0d06ebc       0x7c build/nanos/obj/sign_psbt.o
 .text.get_amount_scriptpubkey_from_psbt_nonwitness
                0x00000000c0d06f38       0x72 build/nanos/obj/sign_psbt.o
 .text.get_amount_scriptpubkey_from_psbt_witness
                0x00000000c0d06faa       0x58 build/nanos/obj/sign_psbt.o
 .text.is_in_out_internal
                0x00000000c0d07002       0x58 build/nanos/obj/sign_psbt.o
 .text.get_segwit_version
                0x00000000c0d0705a       0x26 build/nanos/obj/sign_psbt.o
 .text.call_get_merkleized_map_value_u32_le
                0x00000000c0d07080       0x2c build/nanos/obj/sign_psbt.o
 .text.fill_placeholder_info_if_internal
                0x00000000c0d070ac       0xd8 build/nanos/obj/sign_psbt.o
 .text.read_change_and_index_from_psbt_bip32_derivation
                0x00000000c0d07184      0x118 build/nanos/obj/sign_psbt.o
 .text.output_keys_callback
                0x00000000c0d0729c       0x54 build/nanos/obj/sign_psbt.o
 .text.display_output
                0x00000000c0d072f0       0xb0 build/nanos/obj/sign_psbt.o
 .text.compute_segwit_hashes
                0x00000000c0d073a0      0x1bc build/nanos/obj/sign_psbt.o
 .text.fill_taproot_placeholder_info
                0x00000000c0d0755c       0xae build/nanos/obj/sign_psbt.o
 *fill*         0x00000000c0d0760a        0x2 00
 .text.sign_transaction_input
                0x00000000c0d0760c      0x260 build/nanos/obj/sign_psbt.o
 .text.call_get_merkleized_map
                0x00000000c0d0786c       0x1a build/nanos/obj/sign_psbt.o
 .text.crypto_hash_update
                0x00000000c0d07886       0x12 build/nanos/obj/sign_psbt.o
 .text.crypto_hash_digest
                0x00000000c0d07898       0x14 build/nanos/obj/sign_psbt.o
 .text.hash_outputs
                0x00000000c0d078ac       0x2e build/nanos/obj/sign_psbt.o
 .text.crypto_hash_update_varint
                0x00000000c0d078da       0x1a build/nanos/obj/sign_psbt.o
 .text.cx_hash  0x00000000c0d078f4       0x22 build/nanos/obj/sign_psbt.o
 .text.hash_output_n
                0x00000000c0d07916       0x82 build/nanos/obj/sign_psbt.o
 .text.crypto_hash_update_u8
                0x00000000c0d07998       0x10 build/nanos/obj/sign_psbt.o
 .text.compute_sighash_legacy
                0x00000000c0d079a8      0x1fe build/nanos/obj/sign_psbt.o
 *fill*         0x00000000c0d07ba6        0x2 00
 .text.sign_sighash_ecdsa_and_yield
                0x00000000c0d07ba8       0x9c build/nanos/obj/sign_psbt.o
 .text.compute_sighash_segwitv0
                0x00000000c0d07c44      0x2e4 build/nanos/obj/sign_psbt.o
 .text.compute_sighash_segwitv1
                0x00000000c0d07f28      0x240 build/nanos/obj/sign_psbt.o
 .text.sign_sighash_schnorr_and_yield
                0x00000000c0d08168      0x158 build/nanos/obj/sign_psbt.o
 .text.yield_signature
                0x00000000c0d082c0       0x9c build/nanos/obj/sign_psbt.o
 .text.crypto_hash_update_u32
                0x00000000c0d0835c       0x1c build/nanos/obj/sign_psbt.o
 .text.call_stream_merkle_leaf_element
                0x00000000c0d08378       0x2e build/nanos/obj/stream_merkle_leaf_element.o
                0x00000000c0d08378                call_stream_merkle_leaf_element
 .text.call_stream_merkleized_map_value
                0x00000000c0d083a6       0x4a build/nanos/obj/stream_merkleized_map_value.o
                0x00000000c0d083a6                call_stream_merkleized_map_value
 .text.call_stream_preimage
                0x00000000c0d083f0      0x1c4 build/nanos/obj/stream_preimage.o
                0x00000000c0d083f0                call_stream_preimage
 .text.crypto_hash_update
                0x00000000c0d085b4       0x12 build/nanos/obj/stream_preimage.o
 .text.cx_hash  0x00000000c0d085c6       0x22 build/nanos/obj/stream_preimage.o
 .text          0x00000000c0d085e8        0xe build/nanos/obj/svc_call.o
                0x00000000c0d085e8                SVC_Call
 .text          0x00000000c0d085f6        0x4 build/nanos/obj/svc_cx_call.o
                0x00000000c0d085f6                SVC_cx_call
 *fill*         0x00000000c0d085fa        0x2 00
 .text.get_api_level
                0x00000000c0d085fc       0x18 build/nanos/obj/syscalls.o
                0x00000000c0d085fc                get_api_level
 .text.halt     0x00000000c0d08614       0x14 build/nanos/obj/syscalls.o
                0x00000000c0d08614                halt
 .text.cx_ecdomain_parameters_length
                0x00000000c0d08628       0x18 build/nanos/obj/syscalls.o
                0x00000000c0d08628                cx_ecdomain_parameters_length
 .text.os_perso_isonboarded
                0x00000000c0d08640       0x18 build/nanos/obj/syscalls.o
                0x00000000c0d08640                os_perso_isonboarded
 .text.os_perso_derive_node_bip32
                0x00000000c0d08658       0x20 build/nanos/obj/syscalls.o
                0x00000000c0d08658                os_perso_derive_node_bip32
 .text.os_perso_derive_node_with_seed_key
                0x00000000c0d08678       0x2c build/nanos/obj/syscalls.o
                0x00000000c0d08678                os_perso_derive_node_with_seed_key
 .text.os_perso_seed_cookie
                0x00000000c0d086a4       0x18 build/nanos/obj/syscalls.o
                0x00000000c0d086a4                os_perso_seed_cookie
 .text.os_global_pin_is_validated
                0x00000000c0d086bc       0x18 build/nanos/obj/syscalls.o
                0x00000000c0d086bc                os_global_pin_is_validated
 .text.os_ux    0x00000000c0d086d4       0x18 build/nanos/obj/syscalls.o
                0x00000000c0d086d4                os_ux
 .text.os_lib_end
                0x00000000c0d086ec       0x14 build/nanos/obj/syscalls.o
                0x00000000c0d086ec                os_lib_end
 .text.os_flags
                0x00000000c0d08700       0x14 build/nanos/obj/syscalls.o
                0x00000000c0d08700                os_flags
 .text.os_registry_get_current_app_tag
                0x00000000c0d08714       0x18 build/nanos/obj/syscalls.o
                0x00000000c0d08714                os_registry_get_current_app_tag
 .text.os_sched_exit
                0x00000000c0d0872c       0x18 build/nanos/obj/syscalls.o
                0x00000000c0d0872c                os_sched_exit
 .text.io_seph_send
                0x00000000c0d08744       0x14 build/nanos/obj/syscalls.o
                0x00000000c0d08744                io_seph_send
 .text.io_seph_is_status_sent
                0x00000000c0d08758       0x14 build/nanos/obj/syscalls.o
                0x00000000c0d08758                io_seph_is_status_sent
 .text.io_seph_recv
                0x00000000c0d0876c       0x18 build/nanos/obj/syscalls.o
                0x00000000c0d0876c                io_seph_recv
 .text.try_context_get
                0x00000000c0d08784       0x14 build/nanos/obj/syscalls.o
                0x00000000c0d08784                try_context_get
 .text.try_context_set
                0x00000000c0d08798       0x18 build/nanos/obj/syscalls.o
                0x00000000c0d08798                try_context_set
 .text.os_sched_last_status
                0x00000000c0d087b0       0x1c build/nanos/obj/syscalls.o
                0x00000000c0d087b0                os_sched_last_status
 .text.update_hashes_with_map_value
                0x00000000c0d087cc       0x2c build/nanos/obj/update_hashes_with_map_value.o
                0x00000000c0d087cc                update_hashes_with_map_value
 .text.cb_process_len
                0x00000000c0d087f8       0x22 build/nanos/obj/update_hashes_with_map_value.o
 .text.cb_process_data
                0x00000000c0d0881a       0x2a build/nanos/obj/update_hashes_with_map_value.o
 .text.crypto_hash_update
                0x00000000c0d08844       0x22 build/nanos/obj/update_hashes_with_map_value.o
 *fill*         0x00000000c0d08866        0x2 00
 .text.USBD_LL_Init
                0x00000000c0d08868       0x14 build/nanos/obj/usbd_conf.o
                0x00000000c0d08868                USBD_LL_Init
 .text.USBD_LL_DeInit
                0x00000000c0d0887c       0x24 build/nanos/obj/usbd_conf.o
                0x00000000c0d0887c                USBD_LL_DeInit
 .text.USBD_LL_Start
                0x00000000c0d088a0       0x34 build/nanos/obj/usbd_conf.o
                0x00000000c0d088a0                USBD_LL_Start
 .text.USBD_LL_Stop
                0x00000000c0d088d4       0x1e build/nanos/obj/usbd_conf.o
                0x00000000c0d088d4                USBD_LL_Stop
 *fill*         0x00000000c0d088f2        0x2 00
 .text.USBD_LL_OpenEP
                0x00000000c0d088f4       0x58 build/nanos/obj/usbd_conf.o
                0x00000000c0d088f4                USBD_LL_OpenEP
 .text.USBD_LL_StallEP
                0x00000000c0d0894c       0x44 build/nanos/obj/usbd_conf.o
                0x00000000c0d0894c                USBD_LL_StallEP
 .text.USBD_LL_ClearStallEP
                0x00000000c0d08990       0x44 build/nanos/obj/usbd_conf.o
                0x00000000c0d08990                USBD_LL_ClearStallEP
 .text.USBD_LL_IsStallEP
                0x00000000c0d089d4       0x20 build/nanos/obj/usbd_conf.o
                0x00000000c0d089d4                USBD_LL_IsStallEP
 .text.USBD_LL_SetUSBAddress
                0x00000000c0d089f4       0x20 build/nanos/obj/usbd_conf.o
                0x00000000c0d089f4                USBD_LL_SetUSBAddress
 .text.USBD_LL_Transmit
                0x00000000c0d08a14       0x2e build/nanos/obj/usbd_conf.o
                0x00000000c0d08a14                USBD_LL_Transmit
 .text.USBD_LL_PrepareReceive
                0x00000000c0d08a42       0x22 build/nanos/obj/usbd_conf.o
                0x00000000c0d08a42                USBD_LL_PrepareReceive
 .text.USBD_Init
                0x00000000c0d08a64       0x30 build/nanos/obj/usbd_core.o
                0x00000000c0d08a64                USBD_Init
 .text.USBD_DeInit
                0x00000000c0d08a94       0x38 build/nanos/obj/usbd_core.o
                0x00000000c0d08a94                USBD_DeInit
 .text.USBD_RegisterClassForInterface
                0x00000000c0d08acc       0x1a build/nanos/obj/usbd_core.o
                0x00000000c0d08acc                USBD_RegisterClassForInterface
 .text.USBD_Start
                0x00000000c0d08ae6        0xa build/nanos/obj/usbd_core.o
                0x00000000c0d08ae6                USBD_Start
 .text.USBD_SetClassConfig
                0x00000000c0d08af0       0x36 build/nanos/obj/usbd_core.o
                0x00000000c0d08af0                USBD_SetClassConfig
 .text.USBD_ClrClassConfig
                0x00000000c0d08b26       0x36 build/nanos/obj/usbd_core.o
                0x00000000c0d08b26                USBD_ClrClassConfig
 .text.USBD_LL_SetupStage
                0x00000000c0d08b5c       0x5c build/nanos/obj/usbd_core.o
                0x00000000c0d08b5c                USBD_LL_SetupStage
 .text.USBD_LL_DataOutStage
                0x00000000c0d08bb8       0xac build/nanos/obj/usbd_core.o
                0x00000000c0d08bb8                USBD_LL_DataOutStage
 .text.USBD_LL_DataInStage
                0x00000000c0d08c64       0xe2 build/nanos/obj/usbd_core.o
                0x00000000c0d08c64                USBD_LL_DataInStage
 .text.USBD_LL_Reset
                0x00000000c0d08d46       0x40 build/nanos/obj/usbd_core.o
                0x00000000c0d08d46                USBD_LL_Reset
 .text.USBD_LL_SetSpeed
                0x00000000c0d08d86        0x6 build/nanos/obj/usbd_core.o
                0x00000000c0d08d86                USBD_LL_SetSpeed
 .text.USBD_LL_Suspend
                0x00000000c0d08d8c        0x4 build/nanos/obj/usbd_core.o
                0x00000000c0d08d8c                USBD_LL_Suspend
 .text.USBD_LL_Resume
                0x00000000c0d08d90        0x4 build/nanos/obj/usbd_core.o
                0x00000000c0d08d90                USBD_LL_Resume
 .text.USBD_LL_SOF
                0x00000000c0d08d94       0x3e build/nanos/obj/usbd_core.o
                0x00000000c0d08d94                USBD_LL_SOF
 .text.usbd_is_valid_intf
                0x00000000c0d08dd2       0x16 build/nanos/obj/usbd_ctlreq.o
                0x00000000c0d08dd2                usbd_is_valid_intf
 .text.USBD_StdDevReq
                0x00000000c0d08de8       0x52 build/nanos/obj/usbd_ctlreq.o
                0x00000000c0d08de8                USBD_StdDevReq
 .text.USBD_GetDescriptor
                0x00000000c0d08e3a       0xee build/nanos/obj/usbd_ctlreq.o
                0x00000000c0d08e3a                USBD_GetDescriptor
 .text.USBD_SetAddress
                0x00000000c0d08f28       0x46 build/nanos/obj/usbd_ctlreq.o
                0x00000000c0d08f28                USBD_SetAddress
 .text.USBD_SetConfig
                0x00000000c0d08f6e       0x6e build/nanos/obj/usbd_ctlreq.o
                0x00000000c0d08f6e                USBD_SetConfig
 .text.USBD_GetConfig
                0x00000000c0d08fdc       0x2e build/nanos/obj/usbd_ctlreq.o
                0x00000000c0d08fdc                USBD_GetConfig
 .text.USBD_GetStatus
                0x00000000c0d0900a       0x48 build/nanos/obj/usbd_ctlreq.o
                0x00000000c0d0900a                USBD_GetStatus
 .text.USBD_SetFeature
                0x00000000c0d09052       0x3a build/nanos/obj/usbd_ctlreq.o
                0x00000000c0d09052                USBD_SetFeature
 .text.USBD_ClrFeature
                0x00000000c0d0908c       0x52 build/nanos/obj/usbd_ctlreq.o
                0x00000000c0d0908c                USBD_ClrFeature
 .text.USBD_StdItfReq
                0x00000000c0d090de       0x48 build/nanos/obj/usbd_ctlreq.o
                0x00000000c0d090de                USBD_StdItfReq
 .text.USBD_StdEPReq
                0x00000000c0d09126      0x102 build/nanos/obj/usbd_ctlreq.o
                0x00000000c0d09126                USBD_StdEPReq
 .text.USBD_ParseSetupRequest
                0x00000000c0d09228       0x28 build/nanos/obj/usbd_ctlreq.o
                0x00000000c0d09228                USBD_ParseSetupRequest
 .text.USBD_CtlStall
                0x00000000c0d09250       0x14 build/nanos/obj/usbd_ctlreq.o
                0x00000000c0d09250                USBD_CtlStall
 .text.USBD_HID_Setup
                0x00000000c0d09264       0x90 build/nanos/obj/usbd_hid.o
                0x00000000c0d09264                USBD_HID_Setup
 .text.USBD_HID_Init
                0x00000000c0d092f4       0x2e build/nanos/obj/usbd_hid.o
                0x00000000c0d092f4                USBD_HID_Init
 .text.USBD_HID_DeInit
                0x00000000c0d09322        0x4 build/nanos/obj/usbd_hid.o
                0x00000000c0d09322                USBD_HID_DeInit
 *fill*         0x00000000c0d09326        0x2 00
 .text.USBD_HID_GetHidDescriptor_impl
                0x00000000c0d09328       0x28 build/nanos/obj/usbd_impl.o
                0x00000000c0d09328                USBD_HID_GetHidDescriptor_impl
 .text.USBD_HID_GetReportDescriptor_impl
                0x00000000c0d09350       0x28 build/nanos/obj/usbd_impl.o
                0x00000000c0d09350                USBD_HID_GetReportDescriptor_impl
 .text.USBD_HID_DataIn_impl
                0x00000000c0d09378       0x18 build/nanos/obj/usbd_impl.o
                0x00000000c0d09378                USBD_HID_DataIn_impl
 .text.USBD_HID_DataOut_impl
                0x00000000c0d09390       0x4c build/nanos/obj/usbd_impl.o
                0x00000000c0d09390                USBD_HID_DataOut_impl
 .text.USBD_WEBUSB_Init
                0x00000000c0d093dc       0x2c build/nanos/obj/usbd_impl.o
                0x00000000c0d093dc                USBD_WEBUSB_Init
 .text.USBD_WEBUSB_DeInit
                0x00000000c0d09408        0x4 build/nanos/obj/usbd_impl.o
                0x00000000c0d09408                USBD_WEBUSB_DeInit
 .text.USBD_WEBUSB_Setup
                0x00000000c0d0940c        0x4 build/nanos/obj/usbd_impl.o
                0x00000000c0d0940c                USBD_WEBUSB_Setup
 .text.USBD_WEBUSB_DataIn
                0x00000000c0d09410       0x18 build/nanos/obj/usbd_impl.o
                0x00000000c0d09410                USBD_WEBUSB_DataIn
 .text.USBD_WEBUSB_DataOut
                0x00000000c0d09428       0x4c build/nanos/obj/usbd_impl.o
                0x00000000c0d09428                USBD_WEBUSB_DataOut
 .text.USBD_DeviceDescriptor
                0x00000000c0d09474       0x10 build/nanos/obj/usbd_impl.o
 .text.USBD_LangIDStrDescriptor
                0x00000000c0d09484       0x10 build/nanos/obj/usbd_impl.o
 .text.USBD_ManufacturerStrDescriptor
                0x00000000c0d09494       0x10 build/nanos/obj/usbd_impl.o
 .text.USBD_ProductStrDescriptor
                0x00000000c0d094a4       0x10 build/nanos/obj/usbd_impl.o
 .text.USBD_SerialStrDescriptor
                0x00000000c0d094b4       0x10 build/nanos/obj/usbd_impl.o
 .text.USBD_ConfigStrDescriptor
                0x00000000c0d094c4       0x10 build/nanos/obj/usbd_impl.o
 .text.USBD_InterfaceStrDescriptor
                0x00000000c0d094d4       0x10 build/nanos/obj/usbd_impl.o
 .text.USBD_BOSDescriptor
                0x00000000c0d094e4       0x10 build/nanos/obj/usbd_impl.o
 .text.USBD_CtlError
                0x00000000c0d094f4       0x84 build/nanos/obj/usbd_impl.o
                0x00000000c0d094f4                USBD_CtlError
 .text.USB_power
                0x00000000c0d09578       0x70 build/nanos/obj/usbd_impl.o
                0x00000000c0d09578                USB_power
 .text.USBD_GetCfgDesc_impl
                0x00000000c0d095e8       0x10 build/nanos/obj/usbd_impl.o
 .text.USBD_GetDeviceQualifierDesc_impl
                0x00000000c0d095f8       0x10 build/nanos/obj/usbd_impl.o
 .text.USBD_CtlSendData
                0x00000000c0d09608       0x2c build/nanos/obj/usbd_ioreq.o
                0x00000000c0d09608                USBD_CtlSendData
 .text.USBD_CtlContinueSendData
                0x00000000c0d09634       0x1c build/nanos/obj/usbd_ioreq.o
                0x00000000c0d09634                USBD_CtlContinueSendData
 .text.USBD_CtlContinueRx
                0x00000000c0d09650        0xe build/nanos/obj/usbd_ioreq.o
                0x00000000c0d09650                USBD_CtlContinueRx
 .text.USBD_CtlSendStatus
                0x00000000c0d0965e       0x18 build/nanos/obj/usbd_ioreq.o
                0x00000000c0d0965e                USBD_CtlSendStatus
 .text.USBD_CtlReceiveStatus
                0x00000000c0d09676       0x16 build/nanos/obj/usbd_ioreq.o
                0x00000000c0d09676                USBD_CtlReceiveStatus
 .text.ux_flow_is_first
                0x00000000c0d0968c       0x50 build/nanos/obj/ux_flow_engine.o
                0x00000000c0d0968c                ux_flow_is_first
 .text.ux_flow_check_valid
                0x00000000c0d096dc       0x20 build/nanos/obj/ux_flow_engine.o
 .text.ux_flow_is_last
                0x00000000c0d096fc       0x48 build/nanos/obj/ux_flow_engine.o
                0x00000000c0d096fc                ux_flow_is_last
 .text.ux_flow_direction
                0x00000000c0d09744       0x2c build/nanos/obj/ux_flow_engine.o
                0x00000000c0d09744                ux_flow_direction
 .text.ux_flow_next_internal
                0x00000000c0d09770       0x60 build/nanos/obj/ux_flow_engine.o
 .text.ux_flow_next
                0x00000000c0d097d0        0xa build/nanos/obj/ux_flow_engine.o
                0x00000000c0d097d0                ux_flow_next
 *fill*         0x00000000c0d097da        0x2 00
 .text.ux_flow_prev
                0x00000000c0d097dc       0x60 build/nanos/obj/ux_flow_engine.o
                0x00000000c0d097dc                ux_flow_prev
 .text.ux_flow_engine_init_step
                0x00000000c0d0983c       0x74 build/nanos/obj/ux_flow_engine.o
 .text.ux_flow_validate
                0x00000000c0d098b0       0xac build/nanos/obj/ux_flow_engine.o
                0x00000000c0d098b0                ux_flow_validate
 .text.ux_flow_init
                0x00000000c0d0995c       0x6c build/nanos/obj/ux_flow_engine.o
                0x00000000c0d0995c                ux_flow_init
 .text.ux_flow_button_callback
                0x00000000c0d099c8       0x34 build/nanos/obj/ux_flow_engine.o
                0x00000000c0d099c8                ux_flow_button_callback
 .text.ux_stack_get_step_params
                0x00000000c0d099fc       0x34 build/nanos/obj/ux_flow_engine.o
                0x00000000c0d099fc                ux_stack_get_step_params
 .text.ux_stack_get_current_step_params
                0x00000000c0d09a30       0x14 build/nanos/obj/ux_flow_engine.o
                0x00000000c0d09a30                ux_stack_get_current_step_params
 .text.ux_layout_bb_init_common
                0x00000000c0d09a44       0x3c build/nanos/obj/ux_layout_bb.o
                0x00000000c0d09a44                ux_layout_bb_init_common
 .text.ux_layout_bn_prepro
                0x00000000c0d09a80       0x24 build/nanos/obj/ux_layout_bn.o
                0x00000000c0d09a80                ux_layout_bn_prepro
 .text.ux_layout_bn_init
                0x00000000c0d09aa4       0x28 build/nanos/obj/ux_layout_bn.o
                0x00000000c0d09aa4                ux_layout_bn_init
 .text.ux_layout_nn_prepro
                0x00000000c0d09acc       0x24 build/nanos/obj/ux_layout_nn.o
                0x00000000c0d09acc                ux_layout_nn_prepro
 .text.ux_layout_nn_init
                0x00000000c0d09af0       0x28 build/nanos/obj/ux_layout_nn.o
                0x00000000c0d09af0                ux_layout_nn_init
 .text.ux_layout_paging_redisplay_common
                0x00000000c0d09b18       0x38 build/nanos/obj/ux_layout_paging.o
                0x00000000c0d09b18                ux_layout_paging_redisplay_common
 .text.ux_layout_paging_redisplay_by_addr
                0x00000000c0d09b50       0x24 build/nanos/obj/ux_layout_paging.o
                0x00000000c0d09b50                ux_layout_paging_redisplay_by_addr
 .text.ux_layout_paging_button_callback_by_addr
                0x00000000c0d09b74       0x14 build/nanos/obj/ux_layout_paging.o
 .text.ux_layout_paging_prepro_by_addr
                0x00000000c0d09b88       0x12 build/nanos/obj/ux_layout_paging.o
 *fill*         0x00000000c0d09b9a        0x2 00
 .text.ux_layout_paging_init_common
                0x00000000c0d09b9c       0x78 build/nanos/obj/ux_layout_paging.o
                0x00000000c0d09b9c                ux_layout_paging_init_common
 .text.ux_layout_paging_init
                0x00000000c0d09c14       0x1c build/nanos/obj/ux_layout_paging.o
                0x00000000c0d09c14                ux_layout_paging_init
 .text.ux_layout_paging_prepro_common
                0x00000000c0d09c30      0x12c build/nanos/obj/ux_layout_paging.o
 .text.ux_layout_paging_button_callback_common
                0x00000000c0d09d5c       0x6c build/nanos/obj/ux_layout_paging.o
 .text.ux_layout_paging_compute
                0x00000000c0d09dc8      0x164 build/nanos/obj/ux_layout_paging_compute.o
                0x00000000c0d09dc8                ux_layout_paging_compute
 .text.is_word_delim
                0x00000000c0d09f2c       0x1e build/nanos/obj/ux_layout_paging_compute.o
 *fill*         0x00000000c0d09f4a        0x2 00
 .text.ux_layout_pb_prepro
                0x00000000c0d09f4c       0x50 build/nanos/obj/ux_layout_pb.o
                0x00000000c0d09f4c                ux_layout_pb_prepro
 .text.ux_layout_pb_init
                0x00000000c0d09f9c       0x4c build/nanos/obj/ux_layout_pb.o
                0x00000000c0d09f9c                ux_layout_pb_init
 .text.ux_layout_pbb_prepro
                0x00000000c0d09fe8       0x60 build/nanos/obj/ux_layout_pbb.o
                0x00000000c0d09fe8                ux_layout_pbb_prepro
 .text.ux_layout_pbb_init_common
                0x00000000c0d0a048       0x3c build/nanos/obj/ux_layout_pbb.o
                0x00000000c0d0a048                ux_layout_pbb_init_common
 .text.ux_layout_pbb_init
                0x00000000c0d0a084       0x28 build/nanos/obj/ux_layout_pbb.o
                0x00000000c0d0a084                ux_layout_pbb_init
 .text.ux_layout_pn_prepro
                0x00000000c0d0a0ac       0x50 build/nanos/obj/ux_layout_pn.o
                0x00000000c0d0a0ac                ux_layout_pn_prepro
 .text.ux_layout_pn_init
                0x00000000c0d0a0fc       0x4c build/nanos/obj/ux_layout_pn.o
                0x00000000c0d0a0fc                ux_layout_pn_init
 .text.ux_layout_pnn_prepro
                0x00000000c0d0a148       0x20 build/nanos/obj/ux_layout_pnn.o
                0x00000000c0d0a148                ux_layout_pnn_prepro
 .text.ux_layout_pnn_init
                0x00000000c0d0a168       0x28 build/nanos/obj/ux_layout_pnn.o
                0x00000000c0d0a168                ux_layout_pnn_init
 .text.ux_layout_strings_prepro
                0x00000000c0d0a190       0x54 build/nanos/obj/ux_layout_utils.o
                0x00000000c0d0a190                ux_layout_strings_prepro
 .text.ux_stack_push
                0x00000000c0d0a1e4       0x28 build/nanos/obj/ux_stack.o
                0x00000000c0d0a1e4                ux_stack_push
 .text.ux_stack_display
                0x00000000c0d0a20c       0x40 build/nanos/obj/ux_stack.o
                0x00000000c0d0a20c                ux_stack_display
 .text.ux_stack_init
                0x00000000c0d0a24c       0x20 build/nanos/obj/ux_stack.o
                0x00000000c0d0a24c                ux_stack_init
 .text.ux_stack_al_display_next_element
                0x00000000c0d0a26c       0x80 build/nanos/obj/ux_stack.o
                0x00000000c0d0a26c                ux_stack_al_display_next_element
 .text.varint_size
                0x00000000c0d0a2ec       0x2c build/nanos/obj/varint.o
                0x00000000c0d0a2ec                varint_size
 .text.varint_read
                0x00000000c0d0a318       0x58 build/nanos/obj/varint.o
                0x00000000c0d0a318                varint_read
 .text.varint_write
                0x00000000c0d0a370       0x52 build/nanos/obj/varint.o
                0x00000000c0d0a370                varint_write
 .text.read_wallet_policy_header
                0x00000000c0d0a3c2       0xba build/nanos/obj/wallet.o
                0x00000000c0d0a3c2                read_wallet_policy_header
 .text.parse_policy_map_key_info
                0x00000000c0d0a47c      0x1c8 build/nanos/obj/wallet.o
                0x00000000c0d0a47c                parse_policy_map_key_info
 .text.consume_character
                0x00000000c0d0a644       0x28 build/nanos/obj/wallet.o
 .text.parse_descriptor_template
                0x00000000c0d0a66c       0x28 build/nanos/obj/wallet.o
                0x00000000c0d0a66c                parse_descriptor_template
 .text.parse_script
                0x00000000c0d0a694      0xd72 build/nanos/obj/wallet.o
 *fill*         0x00000000c0d0b406        0x2 00
 .text.compute_miniscript_policy_ext_info
                0x00000000c0d0b408     0x119c build/nanos/obj/wallet.o
                0x00000000c0d0b408                compute_miniscript_policy_ext_info
 .text.sumcheck
                0x00000000c0d0c5a4       0x24 build/nanos/obj/wallet.o
 .text.get_policy_wallet_id
                0x00000000c0d0c5c8       0x7a build/nanos/obj/wallet.o
                0x00000000c0d0c5c8                get_policy_wallet_id
 .text.crypto_hash_update_u8
                0x00000000c0d0c642       0x10 build/nanos/obj/wallet.o
 .text.crypto_hash_update
                0x00000000c0d0c652       0x12 build/nanos/obj/wallet.o
 .text.crypto_hash_update_varint
                0x00000000c0d0c664       0x1a build/nanos/obj/wallet.o
 .text.parse_unsigned_decimal
                0x00000000c0d0c67e       0x52 build/nanos/obj/wallet.o
 .text.buffer_read_hex_hash
                0x00000000c0d0c6d0       0x92 build/nanos/obj/wallet.o
 .text.parse_child_scripts
                0x00000000c0d0c762       0x7a build/nanos/obj/wallet.o
 .text.parse_placeholder
                0x00000000c0d0c7dc       0xfc build/nanos/obj/wallet.o
 .text.parse_tree
                0x00000000c0d0c8d8       0xfa build/nanos/obj/wallet.o
 .text.consume_characters
                0x00000000c0d0c9d2       0x40 build/nanos/obj/wallet.o
 .text.cx_hash  0x00000000c0d0ca12       0x22 build/nanos/obj/wallet.o
 .text.write_u16_be
                0x00000000c0d0ca34        0xa build/nanos/obj/write.o
                0x00000000c0d0ca34                write_u16_be
 .text.write_u32_be
                0x00000000c0d0ca3e       0x12 build/nanos/obj/write.o
                0x00000000c0d0ca3e                write_u32_be
 .text.write_u16_le
                0x00000000c0d0ca50        0xa build/nanos/obj/write.o
                0x00000000c0d0ca50                write_u16_le
 .text.write_u32_le
                0x00000000c0d0ca5a       0x12 build/nanos/obj/write.o
                0x00000000c0d0ca5a                write_u32_le
 .text.write_u64_le
                0x00000000c0d0ca6c       0x20 build/nanos/obj/write.o
                0x00000000c0d0ca6c                write_u64_le
 .text          0x00000000c0d0ca8c       0x8c /usr/lib/gcc/arm-none-eabi/10.3.0/thumb/v6-m/nofp/libgcc.a(_udivsi3.o)
                0x00000000c0d0ca8c                __udivsi3
                0x00000000c0d0ca8c                __aeabi_uidiv
                0x00000000c0d0cb04                __aeabi_uidivmod
 .text          0x00000000c0d0cb18        0x4 /usr/lib/gcc/arm-none-eabi/10.3.0/thumb/v6-m/nofp/libgcc.a(_dvmd_tls.o)
                0x00000000c0d0cb18                __aeabi_ldiv0
                0x00000000c0d0cb18                __aeabi_idiv0
 .text.__muldi3
                0x00000000c0d0cb1c       0x48 /usr/lib/gcc/arm-none-eabi/10.3.0/thumb/v6-m/nofp/libgcc.a(_muldi3.o)
                0x00000000c0d0cb1c                __aeabi_lmul
                0x00000000c0d0cb1c                __muldi3
 .text          0x00000000c0d0cb64        0xc /usr/lib/gcc/arm-none-eabi/10.3.0/../../../../arm-none-eabi/lib/thumb/v6-m/nofp/libc_nano.a(lib_a-aeabi_memclr.o)
                0x00000000c0d0cb64                __aeabi_memclr8
                0x00000000c0d0cb64                __aeabi_memclr
                0x00000000c0d0cb64                __aeabi_memclr4
 .text          0x00000000c0d0cb70        0x8 /usr/lib/gcc/arm-none-eabi/10.3.0/../../../../arm-none-eabi/lib/thumb/v6-m/nofp/libc_nano.a(lib_a-aeabi_memcpy.o)
                0x00000000c0d0cb70                __aeabi_memcpy
                0x00000000c0d0cb70                __aeabi_memcpy4
                0x00000000c0d0cb70                __aeabi_memcpy8
 .text          0x00000000c0d0cb78        0x8 /usr/lib/gcc/arm-none-eabi/10.3.0/../../../../arm-none-eabi/lib/thumb/v6-m/nofp/libc_nano.a(lib_a-aeabi_memmove.o)
                0x00000000c0d0cb78                __aeabi_memmove8
                0x00000000c0d0cb78                __aeabi_memmove
                0x00000000c0d0cb78                __aeabi_memmove4
 .text          0x00000000c0d0cb80       0x10 /usr/lib/gcc/arm-none-eabi/10.3.0/../../../../arm-none-eabi/lib/thumb/v6-m/nofp/libc_nano.a(lib_a-aeabi_memset.o)
                0x00000000c0d0cb80                __aeabi_memset
                0x00000000c0d0cb80                __aeabi_memset8
                0x00000000c0d0cb80                __aeabi_memset4
 .text          0x00000000c0d0cb90        0x8 /usr/lib/gcc/arm-none-eabi/10.3.0/../../../../arm-none-eabi/lib/thumb/v6-m/nofp/libc_nano.a(lib_a-explicit_bzero.o)
                0x00000000c0d0cb90                explicit_bzero
 .text          0x00000000c0d0cb98       0x48 /usr/lib/gcc/arm-none-eabi/10.3.0/../../../../arm-none-eabi/lib/thumb/v6-m/nofp/libc_nano.a(lib_a-memcmp.o)
                0x00000000c0d0cb98                memcmp
 .text          0x00000000c0d0cbe0       0xa4 /usr/lib/gcc/arm-none-eabi/10.3.0/../../../../arm-none-eabi/lib/thumb/v6-m/nofp/libc_nano.a(lib_a-memcpy-stub.o)
                0x00000000c0d0cbe0                memcpy
 .text          0x00000000c0d0cc84       0xac /usr/lib/gcc/arm-none-eabi/10.3.0/../../../../arm-none-eabi/lib/thumb/v6-m/nofp/libc_nano.a(lib_a-memmove.o)
                0x00000000c0d0cc84                memmove
 .text          0x00000000c0d0cd30       0xa8 /usr/lib/gcc/arm-none-eabi/10.3.0/../../../../arm-none-eabi/lib/thumb/v6-m/nofp/libc_nano.a(lib_a-memset.o)
                0x00000000c0d0cd30                memset
 .text          0x00000000c0d0cdd8       0x34 /usr/lib/gcc/arm-none-eabi/10.3.0/../../../../arm-none-eabi/lib/thumb/v6-m/nofp/libc_nano.a(lib_a-setjmp.o)
                0x00000000c0d0cdd8                setjmp
                0x00000000c0d0cdf0                longjmp
 .text          0x00000000c0d0ce0c       0x10 /usr/lib/gcc/arm-none-eabi/10.3.0/../../../../arm-none-eabi/lib/thumb/v6-m/nofp/libc_nano.a(lib_a-strcpy.o)
                0x00000000c0d0ce0c                strcpy
 .text          0x00000000c0d0ce1c       0x5c /usr/lib/gcc/arm-none-eabi/10.3.0/../../../../arm-none-eabi/lib/thumb/v6-m/nofp/libc_nano.a(lib_a-strlen-stub.o)
                0x00000000c0d0ce1c                strlen
 .text          0x00000000c0d0ce78       0x74 /usr/lib/gcc/arm-none-eabi/10.3.0/../../../../arm-none-eabi/lib/thumb/v6-m/nofp/libc_nano.a(lib_a-strncmp.o)
                0x00000000c0d0ce78                strncmp
 .text          0x00000000c0d0ceec       0x6c /usr/lib/gcc/arm-none-eabi/10.3.0/../../../../arm-none-eabi/lib/thumb/v6-m/nofp/libc_nano.a(lib_a-strncpy.o)
                0x00000000c0d0ceec                strncpy
 .text          0x00000000c0d0cf58        0xc /usr/lib/gcc/arm-none-eabi/10.3.0/../../../../arm-none-eabi/lib/thumb/v6-m/nofp/libc_nano.a(lib_a-bzero.o)
                0x00000000c0d0cf58                bzero
 *(.rodata)
 *(.rodata.[^N]*)
 .rodata.BASE58_TABLE_TRIMMED
                0x00000000c0d0cf64       0x4a build/nanos/obj/base58.o
                0x00000000c0d0cf64                BASE58_TABLE_TRIMMED
 .rodata.BASE58_ALPHABET
                0x00000000c0d0cfae       0x3a build/nanos/obj/base58.o
                0x00000000c0d0cfae                BASE58_ALPHABET
 .rodata.str1.1
                0x00000000c0d0cfe8        0x4 build/nanos/obj/bip32.o
                                          0x7 (size before relaxing)
 .rodata.secp256k1_n
                0x00000000c0d0cfec       0x20 build/nanos/obj/crypto.o
 .rodata.secp256k1_p
                0x00000000c0d0d00c       0x20 build/nanos/obj/crypto.o
 .rodata.secp256k1_sqr_exponent
                0x00000000c0d0d02c       0x20 build/nanos/obj/crypto.o
 .rodata.BIP0341_tapleaf_tag
                0x00000000c0d0d04c        0x7 build/nanos/obj/crypto.o
 .rodata.BIP0341_tapbranch_tag
                0x00000000c0d0d053        0x9 build/nanos/obj/crypto.o
 .rodata.BIP0341_taptweak_tag
                0x00000000c0d0d05c        0x8 build/nanos/obj/crypto.o
 .rodata.secp256k1_generator
                0x00000000c0d0d064       0x41 build/nanos/obj/crypto.o
 .rodata.str1.1
                0x00000000c0d0d0a5      0x1d1 build/nanos/obj/display.o
 *fill*         0x00000000c0d0d276        0x2 00
 .rodata.ux_display_confirm_pubkey_step_val
                0x00000000c0d0d278        0x8 build/nanos/obj/display.o
                0x00000000c0d0d278                ux_display_confirm_pubkey_step_val
 .rodata.ux_display_confirm_pubkey_step
                0x00000000c0d0d280       0x10 build/nanos/obj/display.o
                0x00000000c0d0d280                ux_display_confirm_pubkey_step
 .rodata.ux_display_unusual_derivation_path_step_val
                0x00000000c0d0d290        0xc build/nanos/obj/display.o
                0x00000000c0d0d290                ux_display_unusual_derivation_path_step_val
 .rodata.ux_display_unusual_derivation_path_step
                0x00000000c0d0d29c       0x10 build/nanos/obj/display.o
                0x00000000c0d0d29c                ux_display_unusual_derivation_path_step
 .rodata.ux_display_reject_if_not_sure_step_validate_step
                0x00000000c0d0d2ac       0x10 build/nanos/obj/display.o
                0x00000000c0d0d2ac                ux_display_reject_if_not_sure_step_validate_step
 .rodata.ux_display_reject_if_not_sure_step_validate
                0x00000000c0d0d2bc        0x8 build/nanos/obj/display.o
                0x00000000c0d0d2bc                ux_display_reject_if_not_sure_step_validate
 .rodata.ux_display_reject_if_not_sure_step_val
                0x00000000c0d0d2c4        0xc build/nanos/obj/display.o
                0x00000000c0d0d2c4                ux_display_reject_if_not_sure_step_val
 .rodata.ux_display_reject_if_not_sure_step
                0x00000000c0d0d2d0       0x10 build/nanos/obj/display.o
                0x00000000c0d0d2d0                ux_display_reject_if_not_sure_step
 .rodata.ux_display_approve_step_validate_step
                0x00000000c0d0d2e0       0x10 build/nanos/obj/display.o
                0x00000000c0d0d2e0                ux_display_approve_step_validate_step
 .rodata.ux_display_approve_step_validate
                0x00000000c0d0d2f0        0x8 build/nanos/obj/display.o
                0x00000000c0d0d2f0                ux_display_approve_step_validate
 .rodata.ux_display_approve_step_val
                0x00000000c0d0d2f8        0x8 build/nanos/obj/display.o
                0x00000000c0d0d2f8                ux_display_approve_step_val
 .rodata.ux_display_approve_step
                0x00000000c0d0d300       0x10 build/nanos/obj/display.o
                0x00000000c0d0d300                ux_display_approve_step
 .rodata.ux_display_continue_step_validate_step
                0x00000000c0d0d310       0x10 build/nanos/obj/display.o
                0x00000000c0d0d310                ux_display_continue_step_validate_step
 .rodata.ux_display_continue_step_validate
                0x00000000c0d0d320        0x8 build/nanos/obj/display.o
                0x00000000c0d0d320                ux_display_continue_step_validate
 .rodata.ux_display_continue_step_val
                0x00000000c0d0d328        0x8 build/nanos/obj/display.o
                0x00000000c0d0d328                ux_display_continue_step_val
 .rodata.ux_display_continue_step
                0x00000000c0d0d330       0x10 build/nanos/obj/display.o
                0x00000000c0d0d330                ux_display_continue_step
 .rodata.ux_display_reject_step_validate_step
                0x00000000c0d0d340       0x10 build/nanos/obj/display.o
                0x00000000c0d0d340                ux_display_reject_step_validate_step
 .rodata.ux_display_reject_step_validate
                0x00000000c0d0d350        0x8 build/nanos/obj/display.o
                0x00000000c0d0d350                ux_display_reject_step_validate
 .rodata.ux_display_reject_step_val
                0x00000000c0d0d358        0x8 build/nanos/obj/display.o
                0x00000000c0d0d358                ux_display_reject_step_val
 .rodata.ux_display_reject_step
                0x00000000c0d0d360       0x10 build/nanos/obj/display.o
                0x00000000c0d0d360                ux_display_reject_step
 .rodata.ux_display_path_step_val
                0x00000000c0d0d370        0x8 build/nanos/obj/display.o
                0x00000000c0d0d370                ux_display_path_step_val
 .rodata.ux_display_path_step
                0x00000000c0d0d378       0x10 build/nanos/obj/display.o
                0x00000000c0d0d378                ux_display_path_step
 .rodata.ux_display_pubkey_step_val
                0x00000000c0d0d388        0x8 build/nanos/obj/display.o
                0x00000000c0d0d388                ux_display_pubkey_step_val
 .rodata.ux_display_pubkey_step
                0x00000000c0d0d390       0x10 build/nanos/obj/display.o
                0x00000000c0d0d390                ux_display_pubkey_step
 .rodata.ux_display_wallet_policy_map_step_val
                0x00000000c0d0d3a0        0x8 build/nanos/obj/display.o
                0x00000000c0d0d3a0                ux_display_wallet_policy_map_step_val
 .rodata.ux_display_wallet_policy_map_step
                0x00000000c0d0d3a8       0x10 build/nanos/obj/display.o
                0x00000000c0d0d3a8                ux_display_wallet_policy_map_step
 .rodata.ux_display_wallet_policy_cosigner_pubkey_step_val
                0x00000000c0d0d3b8        0x8 build/nanos/obj/display.o
                0x00000000c0d0d3b8                ux_display_wallet_policy_cosigner_pubkey_step_val
 .rodata.ux_display_wallet_policy_cosigner_pubkey_step
                0x00000000c0d0d3c0       0x10 build/nanos/obj/display.o
                0x00000000c0d0d3c0                ux_display_wallet_policy_cosigner_pubkey_step
 .rodata.ux_display_wallet_address_step_val
                0x00000000c0d0d3d0        0x8 build/nanos/obj/display.o
                0x00000000c0d0d3d0                ux_display_wallet_address_step_val
 .rodata.ux_display_wallet_address_step
                0x00000000c0d0d3d8       0x10 build/nanos/obj/display.o
                0x00000000c0d0d3d8                ux_display_wallet_address_step
 .rodata.ux_display_warning_external_inputs_step_val
                0x00000000c0d0d3e8        0xc build/nanos/obj/display.o
                0x00000000c0d0d3e8                ux_display_warning_external_inputs_step_val
 .rodata.ux_display_warning_external_inputs_step
                0x00000000c0d0d3f4       0x10 build/nanos/obj/display.o
                0x00000000c0d0d3f4                ux_display_warning_external_inputs_step
 .rodata.ux_unverified_segwit_input_flow_1_step_val
                0x00000000c0d0d404        0x8 build/nanos/obj/display.o
                0x00000000c0d0d404                ux_unverified_segwit_input_flow_1_step_val
 .rodata.ux_unverified_segwit_input_flow_1_step
                0x00000000c0d0d40c       0x10 build/nanos/obj/display.o
                0x00000000c0d0d40c                ux_unverified_segwit_input_flow_1_step
 .rodata.ux_unverified_segwit_input_flow_2_step_val
                0x00000000c0d0d41c        0x8 build/nanos/obj/display.o
                0x00000000c0d0d41c                ux_unverified_segwit_input_flow_2_step_val
 .rodata.ux_unverified_segwit_input_flow_2_step
                0x00000000c0d0d424       0x10 build/nanos/obj/display.o
                0x00000000c0d0d424                ux_unverified_segwit_input_flow_2_step
 .rodata.ux_unverified_segwit_input_flow_3_step_val
                0x00000000c0d0d434        0x8 build/nanos/obj/display.o
                0x00000000c0d0d434                ux_unverified_segwit_input_flow_3_step_val
 .rodata.ux_unverified_segwit_input_flow_3_step
                0x00000000c0d0d43c       0x10 build/nanos/obj/display.o
                0x00000000c0d0d43c                ux_unverified_segwit_input_flow_3_step
 .rodata.ux_nondefault_sighash_flow_1_step_val
                0x00000000c0d0d44c        0x8 build/nanos/obj/display.o
                0x00000000c0d0d44c                ux_nondefault_sighash_flow_1_step_val
 .rodata.ux_nondefault_sighash_flow_1_step
                0x00000000c0d0d454       0x10 build/nanos/obj/display.o
                0x00000000c0d0d454                ux_nondefault_sighash_flow_1_step
 .rodata.ux_review_step_val
                0x00000000c0d0d464        0xc build/nanos/obj/display.o
                0x00000000c0d0d464                ux_review_step_val
 .rodata.ux_review_step
                0x00000000c0d0d470       0x10 build/nanos/obj/display.o
                0x00000000c0d0d470                ux_review_step
 .rodata.ux_validate_amount_step_val
                0x00000000c0d0d480        0x8 build/nanos/obj/display.o
                0x00000000c0d0d480                ux_validate_amount_step_val
 .rodata.ux_validate_amount_step
                0x00000000c0d0d488       0x10 build/nanos/obj/display.o
                0x00000000c0d0d488                ux_validate_amount_step
 .rodata.ux_validate_address_step_val
                0x00000000c0d0d498        0x8 build/nanos/obj/display.o
                0x00000000c0d0d498                ux_validate_address_step_val
 .rodata.ux_validate_address_step
                0x00000000c0d0d4a0       0x10 build/nanos/obj/display.o
                0x00000000c0d0d4a0                ux_validate_address_step
 .rodata.ux_confirm_transaction_step_val
                0x00000000c0d0d4b0        0xc build/nanos/obj/display.o
                0x00000000c0d0d4b0                ux_confirm_transaction_step_val
 .rodata.ux_confirm_transaction_step
                0x00000000c0d0d4bc       0x10 build/nanos/obj/display.o
                0x00000000c0d0d4bc                ux_confirm_transaction_step
 .rodata.ux_confirm_transaction_fees_step_val
                0x00000000c0d0d4cc        0x8 build/nanos/obj/display.o
                0x00000000c0d0d4cc                ux_confirm_transaction_fees_step_val
 .rodata.ux_confirm_transaction_fees_step
                0x00000000c0d0d4d4       0x10 build/nanos/obj/display.o
                0x00000000c0d0d4d4                ux_confirm_transaction_fees_step
 .rodata.ux_accept_and_send_step_validate_step
                0x00000000c0d0d4e4       0x10 build/nanos/obj/display.o
                0x00000000c0d0d4e4                ux_accept_and_send_step_validate_step
 .rodata.ux_accept_and_send_step_validate
                0x00000000c0d0d4f4        0x8 build/nanos/obj/display.o
                0x00000000c0d0d4f4                ux_accept_and_send_step_validate
 .rodata.ux_accept_and_send_step_val
                0x00000000c0d0d4fc        0xc build/nanos/obj/display.o
                0x00000000c0d0d4fc                ux_accept_and_send_step_val
 .rodata.ux_accept_and_send_step
                0x00000000c0d0d508       0x10 build/nanos/obj/display.o
                0x00000000c0d0d508                ux_accept_and_send_step
 .rodata.ux_display_register_wallet_step_val
                0x00000000c0d0d518        0x8 build/nanos/obj/display.o
                0x00000000c0d0d518                ux_display_register_wallet_step_val
 .rodata.ux_display_register_wallet_step
                0x00000000c0d0d520       0x10 build/nanos/obj/display.o
                0x00000000c0d0d520                ux_display_register_wallet_step
 .rodata.ux_display_receive_in_registered_wallet_step_val
                0x00000000c0d0d530        0xc build/nanos/obj/display.o
                0x00000000c0d0d530                ux_display_receive_in_registered_wallet_step_val
 .rodata.ux_display_receive_in_registered_wallet_step
                0x00000000c0d0d53c       0x10 build/nanos/obj/display.o
                0x00000000c0d0d53c                ux_display_receive_in_registered_wallet_step
 .rodata.ux_display_spend_from_registered_wallet_step_val
                0x00000000c0d0d54c        0xc build/nanos/obj/display.o
                0x00000000c0d0d54c                ux_display_spend_from_registered_wallet_step_val
 .rodata.ux_display_spend_from_registered_wallet_step
                0x00000000c0d0d558       0x10 build/nanos/obj/display.o
                0x00000000c0d0d558                ux_display_spend_from_registered_wallet_step
 .rodata.ux_display_wallet_name_step_val
                0x00000000c0d0d568        0x8 build/nanos/obj/display.o
                0x00000000c0d0d568                ux_display_wallet_name_step_val
 .rodata.ux_display_wallet_name_step
                0x00000000c0d0d570       0x10 build/nanos/obj/display.o
                0x00000000c0d0d570                ux_display_wallet_name_step
 .rodata.ux_sign_message_step_val
                0x00000000c0d0d580        0xc build/nanos/obj/display.o
                0x00000000c0d0d580                ux_sign_message_step_val
 .rodata.ux_sign_message_step
                0x00000000c0d0d58c       0x10 build/nanos/obj/display.o
                0x00000000c0d0d58c                ux_sign_message_step
 .rodata.ux_message_sign_display_path_step_val
                0x00000000c0d0d59c        0x8 build/nanos/obj/display.o
                0x00000000c0d0d59c                ux_message_sign_display_path_step_val
 .rodata.ux_message_sign_display_path_step
                0x00000000c0d0d5a4       0x10 build/nanos/obj/display.o
                0x00000000c0d0d5a4                ux_message_sign_display_path_step
 .rodata.ux_message_hash_step_val
                0x00000000c0d0d5b4        0x8 build/nanos/obj/display.o
                0x00000000c0d0d5b4                ux_message_hash_step_val
 .rodata.ux_message_hash_step
                0x00000000c0d0d5bc       0x10 build/nanos/obj/display.o
                0x00000000c0d0d5bc                ux_message_hash_step
 .rodata.ux_sign_message_accept_new_validate_step
                0x00000000c0d0d5cc       0x10 build/nanos/obj/display.o
                0x00000000c0d0d5cc                ux_sign_message_accept_new_validate_step
 .rodata.ux_sign_message_accept_new_validate
                0x00000000c0d0d5dc        0x8 build/nanos/obj/display.o
                0x00000000c0d0d5dc                ux_sign_message_accept_new_validate
 .rodata.ux_sign_message_accept_new_val
                0x00000000c0d0d5e4        0xc build/nanos/obj/display.o
                0x00000000c0d0d5e4                ux_sign_message_accept_new_val
 .rodata.ux_sign_message_accept_new
                0x00000000c0d0d5f0       0x10 build/nanos/obj/display.o
                0x00000000c0d0d5f0                ux_sign_message_accept_new
 .rodata.ux_sign_message_flow
                0x00000000c0d0d600       0x18 build/nanos/obj/display.o
                0x00000000c0d0d600                ux_sign_message_flow
 .rodata.ux_display_pubkey_flow
                0x00000000c0d0d618       0x18 build/nanos/obj/display.o
                0x00000000c0d0d618                ux_display_pubkey_flow
 .rodata.ux_display_pubkey_suspicious_flow
                0x00000000c0d0d630       0x20 build/nanos/obj/display.o
                0x00000000c0d0d630                ux_display_pubkey_suspicious_flow
 .rodata.ux_display_register_wallet_flow
                0x00000000c0d0d650       0x18 build/nanos/obj/display.o
                0x00000000c0d0d650                ux_display_register_wallet_flow
 .rodata.ux_display_policy_map_cosigner_pubkey_flow
                0x00000000c0d0d668       0x10 build/nanos/obj/display.o
                0x00000000c0d0d668                ux_display_policy_map_cosigner_pubkey_flow
 .rodata.ux_display_receive_in_wallet_flow
                0x00000000c0d0d678       0x18 build/nanos/obj/display.o
                0x00000000c0d0d678                ux_display_receive_in_wallet_flow
 .rodata.ux_display_canonical_wallet_address_flow
                0x00000000c0d0d690       0x10 build/nanos/obj/display.o
                0x00000000c0d0d690                ux_display_canonical_wallet_address_flow
 .rodata.ux_display_spend_from_wallet_flow
                0x00000000c0d0d6a0       0x14 build/nanos/obj/display.o
                0x00000000c0d0d6a0                ux_display_spend_from_wallet_flow
 .rodata.ux_display_warning_external_inputs_flow
                0x00000000c0d0d6b4       0x10 build/nanos/obj/display.o
                0x00000000c0d0d6b4                ux_display_warning_external_inputs_flow
 .rodata.ux_display_unverified_segwit_inputs_flow
                0x00000000c0d0d6c4       0x18 build/nanos/obj/display.o
                0x00000000c0d0d6c4                ux_display_unverified_segwit_inputs_flow
 .rodata.ux_display_nondefault_sighash_flow
                0x00000000c0d0d6dc       0x14 build/nanos/obj/display.o
                0x00000000c0d0d6dc                ux_display_nondefault_sighash_flow
 .rodata.ux_display_output_address_amount_flow
                0x00000000c0d0d6f0       0x18 build/nanos/obj/display.o
                0x00000000c0d0d6f0                ux_display_output_address_amount_flow
 .rodata.ux_accept_transaction_flow
                0x00000000c0d0d708       0x14 build/nanos/obj/display.o
                0x00000000c0d0d708                ux_accept_transaction_flow
 .rodata.str1.1
                0x00000000c0d0d71c        0x5 build/nanos/obj/display_utils.o
 *fill*         0x00000000c0d0d721        0x3 00
 .rodata..L__const.handler_get_extended_pubkey.path_str
                0x00000000c0d0d724       0x61 build/nanos/obj/get_extended_pubkey.o
 *fill*         0x00000000c0d0d785        0x3 00
 .rodata.C_icon_back_colors
                0x00000000c0d0d788        0x8 build/nanos/obj/glyphs.o
                0x00000000c0d0d788                C_icon_back_colors
 .rodata.C_icon_back_bitmap
                0x00000000c0d0d790       0x19 build/nanos/obj/glyphs.o
                0x00000000c0d0d790                C_icon_back_bitmap
 *fill*         0x00000000c0d0d7a9        0x3 00
 .rodata.C_icon_back
                0x00000000c0d0d7ac       0x14 build/nanos/obj/glyphs.o
                0x00000000c0d0d7ac                C_icon_back
 .rodata.C_icon_certificate_colors
                0x00000000c0d0d7c0        0x8 build/nanos/obj/glyphs.o
                0x00000000c0d0d7c0                C_icon_certificate_colors
 .rodata.C_icon_certificate_bitmap
                0x00000000c0d0d7c8       0x19 build/nanos/obj/glyphs.o
                0x00000000c0d0d7c8                C_icon_certificate_bitmap
 *fill*         0x00000000c0d0d7e1        0x3 00
 .rodata.C_icon_certificate
                0x00000000c0d0d7e4       0x14 build/nanos/obj/glyphs.o
                0x00000000c0d0d7e4                C_icon_certificate
 .rodata.C_icon_crossmark_colors
                0x00000000c0d0d7f8        0x8 build/nanos/obj/glyphs.o
                0x00000000c0d0d7f8                C_icon_crossmark_colors
 .rodata.C_icon_crossmark_bitmap
                0x00000000c0d0d800       0x19 build/nanos/obj/glyphs.o
                0x00000000c0d0d800                C_icon_crossmark_bitmap
 *fill*         0x00000000c0d0d819        0x3 00
 .rodata.C_icon_crossmark
                0x00000000c0d0d81c       0x14 build/nanos/obj/glyphs.o
                0x00000000c0d0d81c                C_icon_crossmark
 .rodata.C_icon_dashboard_x_colors
                0x00000000c0d0d830        0x8 build/nanos/obj/glyphs.o
                0x00000000c0d0d830                C_icon_dashboard_x_colors
 .rodata.C_icon_dashboard_x_bitmap
                0x00000000c0d0d838       0x19 build/nanos/obj/glyphs.o
                0x00000000c0d0d838                C_icon_dashboard_x_bitmap
 *fill*         0x00000000c0d0d851        0x3 00
 .rodata.C_icon_dashboard_x
                0x00000000c0d0d854       0x14 build/nanos/obj/glyphs.o
                0x00000000c0d0d854                C_icon_dashboard_x
 .rodata.C_icon_eye_colors
                0x00000000c0d0d868        0x8 build/nanos/obj/glyphs.o
                0x00000000c0d0d868                C_icon_eye_colors
 .rodata.C_icon_eye_bitmap
                0x00000000c0d0d870       0x19 build/nanos/obj/glyphs.o
                0x00000000c0d0d870                C_icon_eye_bitmap
 *fill*         0x00000000c0d0d889        0x3 00
 .rodata.C_icon_eye
                0x00000000c0d0d88c       0x14 build/nanos/obj/glyphs.o
                0x00000000c0d0d88c                C_icon_eye
 .rodata.C_icon_left_colors
                0x00000000c0d0d8a0        0x8 build/nanos/obj/glyphs.o
                0x00000000c0d0d8a0                C_icon_left_colors
 .rodata.C_icon_left_bitmap
                0x00000000c0d0d8a8        0x4 build/nanos/obj/glyphs.o
                0x00000000c0d0d8a8                C_icon_left_bitmap
 .rodata.C_icon_left
                0x00000000c0d0d8ac       0x14 build/nanos/obj/glyphs.o
                0x00000000c0d0d8ac                C_icon_left
 .rodata.C_icon_processing_colors
                0x00000000c0d0d8c0        0x8 build/nanos/obj/glyphs.o
                0x00000000c0d0d8c0                C_icon_processing_colors
 .rodata.C_icon_processing_bitmap
                0x00000000c0d0d8c8       0x19 build/nanos/obj/glyphs.o
                0x00000000c0d0d8c8                C_icon_processing_bitmap
 *fill*         0x00000000c0d0d8e1        0x3 00
 .rodata.C_icon_processing
                0x00000000c0d0d8e4       0x14 build/nanos/obj/glyphs.o
                0x00000000c0d0d8e4                C_icon_processing
 .rodata.C_icon_right_colors
                0x00000000c0d0d8f8        0x8 build/nanos/obj/glyphs.o
                0x00000000c0d0d8f8                C_icon_right_colors
 .rodata.C_icon_right_bitmap
                0x00000000c0d0d900        0x4 build/nanos/obj/glyphs.o
                0x00000000c0d0d900                C_icon_right_bitmap
 .rodata.C_icon_right
                0x00000000c0d0d904       0x14 build/nanos/obj/glyphs.o
                0x00000000c0d0d904                C_icon_right
 .rodata.C_icon_validate_14_colors
                0x00000000c0d0d918        0x8 build/nanos/obj/glyphs.o
                0x00000000c0d0d918                C_icon_validate_14_colors
 .rodata.C_icon_validate_14_bitmap
                0x00000000c0d0d920       0x19 build/nanos/obj/glyphs.o
                0x00000000c0d0d920                C_icon_validate_14_bitmap
 *fill*         0x00000000c0d0d939        0x3 00
 .rodata.C_icon_validate_14
                0x00000000c0d0d93c       0x14 build/nanos/obj/glyphs.o
                0x00000000c0d0d93c                C_icon_validate_14
 .rodata.C_icon_wallet_colors
                0x00000000c0d0d950        0x8 build/nanos/obj/glyphs.o
                0x00000000c0d0d950                C_icon_wallet_colors
 .rodata.C_icon_wallet_bitmap
                0x00000000c0d0d958       0x19 build/nanos/obj/glyphs.o
                0x00000000c0d0d958                C_icon_wallet_bitmap
 *fill*         0x00000000c0d0d971        0x3 00
 .rodata.C_icon_wallet
                0x00000000c0d0d974       0x14 build/nanos/obj/glyphs.o
                0x00000000c0d0d974                C_icon_wallet
 .rodata.C_icon_warning_colors
                0x00000000c0d0d988        0x8 build/nanos/obj/glyphs.o
                0x00000000c0d0d988                C_icon_warning_colors
 .rodata.C_icon_warning_bitmap
                0x00000000c0d0d990       0x19 build/nanos/obj/glyphs.o
                0x00000000c0d0d990                C_icon_warning_bitmap
 *fill*         0x00000000c0d0d9a9        0x3 00
 .rodata.C_icon_warning
                0x00000000c0d0d9ac       0x14 build/nanos/obj/glyphs.o
                0x00000000c0d0d9ac                C_icon_warning
 .rodata.C_syscoin_logo_colors
                0x00000000c0d0d9c0       0x10 build/nanos/obj/glyphs.o
                0x00000000c0d0d9c0                C_syscoin_logo_colors
 .rodata.C_syscoin_logo_bitmap
                0x00000000c0d0d9d0       0x31 build/nanos/obj/glyphs.o
                0x00000000c0d0d9d0                C_syscoin_logo_bitmap
 *fill*         0x00000000c0d0da01        0x3 00
 .rodata.C_syscoin_logo
                0x00000000c0d0da04       0x14 build/nanos/obj/glyphs.o
                0x00000000c0d0da04                C_syscoin_logo
 .rodata.str1.1
                0x00000000c0d0da18        0x4 build/nanos/obj/handle_check_address.o
 .rodata.str1.1
                0x00000000c0d0da1c        0x4 build/nanos/obj/handle_get_printable_amount.o
 .rodata.str1.1
                0x00000000c0d0da20        0xe build/nanos/obj/io.o
 *fill*         0x00000000c0d0da2e        0x2 00
 .rodata.ux_processing_flow_1_step_val
                0x00000000c0d0da30        0x8 build/nanos/obj/io.o
                0x00000000c0d0da30                ux_processing_flow_1_step_val
 .rodata.ux_processing_flow_1_step
                0x00000000c0d0da38       0x10 build/nanos/obj/io.o
                0x00000000c0d0da38                ux_processing_flow_1_step
 .rodata.ux_processing_flow
                0x00000000c0d0da48        0x8 build/nanos/obj/io.o
                0x00000000c0d0da48                ux_processing_flow
 .rodata.COMMAND_DESCRIPTORS
                0x00000000c0d0da50       0x30 build/nanos/obj/main.o
                0x00000000c0d0da50                COMMAND_DESCRIPTORS
 .rodata.str1.1
                0x00000000c0d0da80       0x5b build/nanos/obj/menu.o
 *fill*         0x00000000c0d0dadb        0x1 00
 .rodata.ux_menu_ready_step_bitcoin_val
                0x00000000c0d0dadc        0xc build/nanos/obj/menu.o
                0x00000000c0d0dadc                ux_menu_ready_step_bitcoin_val
 .rodata.ux_menu_ready_step_bitcoin
                0x00000000c0d0dae8       0x10 build/nanos/obj/menu.o
                0x00000000c0d0dae8                ux_menu_ready_step_bitcoin
 .rodata.ux_menu_version_step_val
                0x00000000c0d0daf8        0x8 build/nanos/obj/menu.o
                0x00000000c0d0daf8                ux_menu_version_step_val
 .rodata.ux_menu_version_step
                0x00000000c0d0db00       0x10 build/nanos/obj/menu.o
                0x00000000c0d0db00                ux_menu_version_step
 .rodata.ux_menu_about_step_validate_step
                0x00000000c0d0db10       0x10 build/nanos/obj/menu.o
                0x00000000c0d0db10                ux_menu_about_step_validate_step
 .rodata.ux_menu_about_step_validate
                0x00000000c0d0db20        0x8 build/nanos/obj/menu.o
                0x00000000c0d0db20                ux_menu_about_step_validate
 .rodata.ux_menu_about_step_val
                0x00000000c0d0db28        0x8 build/nanos/obj/menu.o
                0x00000000c0d0db28                ux_menu_about_step_val
 .rodata.ux_menu_about_step
                0x00000000c0d0db30       0x10 build/nanos/obj/menu.o
                0x00000000c0d0db30                ux_menu_about_step
 .rodata.ux_menu_exit_step_validate_step
                0x00000000c0d0db40       0x10 build/nanos/obj/menu.o
                0x00000000c0d0db40                ux_menu_exit_step_validate_step
 .rodata.ux_menu_exit_step_validate
                0x00000000c0d0db50        0x8 build/nanos/obj/menu.o
                0x00000000c0d0db50                ux_menu_exit_step_validate
 .rodata.ux_menu_exit_step_val
                0x00000000c0d0db58        0x8 build/nanos/obj/menu.o
                0x00000000c0d0db58                ux_menu_exit_step_val
 .rodata.ux_menu_exit_step
                0x00000000c0d0db60       0x10 build/nanos/obj/menu.o
                0x00000000c0d0db60                ux_menu_exit_step
 .rodata.ux_menu_main_flow_bitcoin
                0x00000000c0d0db70       0x18 build/nanos/obj/menu.o
                0x00000000c0d0db70                ux_menu_main_flow_bitcoin
 .rodata.ux_menu_info_step_val
                0x00000000c0d0db88        0x8 build/nanos/obj/menu.o
                0x00000000c0d0db88                ux_menu_info_step_val
 .rodata.ux_menu_info_step
                0x00000000c0d0db90       0x10 build/nanos/obj/menu.o
                0x00000000c0d0db90                ux_menu_info_step
 .rodata.ux_menu_back_step_validate_step
                0x00000000c0d0dba0       0x10 build/nanos/obj/menu.o
                0x00000000c0d0dba0                ux_menu_back_step_validate_step
 .rodata.ux_menu_back_step_validate
                0x00000000c0d0dbb0        0x8 build/nanos/obj/menu.o
                0x00000000c0d0dbb0                ux_menu_back_step_validate
 .rodata.ux_menu_back_step_val
                0x00000000c0d0dbb8        0x8 build/nanos/obj/menu.o
                0x00000000c0d0dbb8                ux_menu_back_step_val
 .rodata.ux_menu_back_step
                0x00000000c0d0dbc0       0x10 build/nanos/obj/menu.o
                0x00000000c0d0dbc0                ux_menu_back_step
 .rodata.ux_menu_about_flow
                0x00000000c0d0dbd0       0x10 build/nanos/obj/menu.o
                0x00000000c0d0dbd0                ux_menu_about_flow
 .rodata.seph_io_general_status
                0x00000000c0d0dbe0        0x5 build/nanos/obj/os_io_seproxyhal.o
 .rodata.seph_io_se_reset
                0x00000000c0d0dbe5        0x3 build/nanos/obj/os_io_seproxyhal.o
 .rodata.cst16  0x00000000c0d0dbe8       0x20 build/nanos/obj/os_printf.o
 .rodata.fragment_whitelist_sh
                0x00000000c0d0dc08        0x3 build/nanos/obj/policy.o
 .rodata.fragment_whitelist_sh_wsh
                0x00000000c0d0dc0b        0x2 build/nanos/obj/policy.o
 .rodata.fragment_whitelist_wsh
                0x00000000c0d0dc0d       0x21 build/nanos/obj/policy.o
 .rodata.fragment_whitelist_tapscript
                0x00000000c0d0dc2e        0x3 build/nanos/obj/policy.o
 .rodata.commands_0
                0x00000000c0d0dc31        0x4 build/nanos/obj/policy.o
 .rodata.commands_1
                0x00000000c0d0dc35        0x4 build/nanos/obj/policy.o
 .rodata.commands_pk_k
                0x00000000c0d0dc39        0x4 build/nanos/obj/policy.o
 .rodata.commands_pk_h
                0x00000000c0d0dc3d        0xa build/nanos/obj/policy.o
 .rodata.commands_pk
                0x00000000c0d0dc47        0x6 build/nanos/obj/policy.o
 .rodata.commands_older
                0x00000000c0d0dc4d        0x6 build/nanos/obj/policy.o
 .rodata.commands_after
                0x00000000c0d0dc53        0x6 build/nanos/obj/policy.o
 .rodata.commands_sha256
                0x00000000c0d0dc59       0x10 build/nanos/obj/policy.o
 .rodata.commands_hash256
                0x00000000c0d0dc69       0x10 build/nanos/obj/policy.o
 .rodata.commands_ripemd160
                0x00000000c0d0dc79       0x10 build/nanos/obj/policy.o
 .rodata.commands_hash160
                0x00000000c0d0dc89       0x10 build/nanos/obj/policy.o
 .rodata.commands_andor
                0x00000000c0d0dc99        0xe build/nanos/obj/policy.o
 .rodata.commands_and_v
                0x00000000c0d0dca7        0x6 build/nanos/obj/policy.o
 .rodata.commands_and_b
                0x00000000c0d0dcad        0x8 build/nanos/obj/policy.o
 .rodata.commands_and_n
                0x00000000c0d0dcb5        0xe build/nanos/obj/policy.o
 .rodata.commands_or_b
                0x00000000c0d0dcc3        0x8 build/nanos/obj/policy.o
 .rodata.commands_or_c
                0x00000000c0d0dccb        0xa build/nanos/obj/policy.o
 .rodata.commands_or_d
                0x00000000c0d0dcd5        0xc build/nanos/obj/policy.o
 .rodata.commands_or_i
                0x00000000c0d0dce1        0xc build/nanos/obj/policy.o
 .rodata.commands_a
                0x00000000c0d0dced        0x6 build/nanos/obj/policy.o
 .rodata.commands_s
                0x00000000c0d0dcf3        0x6 build/nanos/obj/policy.o
 .rodata.commands_c
                0x00000000c0d0dcf9        0x6 build/nanos/obj/policy.o
 .rodata.commands_t
                0x00000000c0d0dcff        0x6 build/nanos/obj/policy.o
 .rodata.commands_d
                0x00000000c0d0dd05        0xa build/nanos/obj/policy.o
 .rodata.commands_v
                0x00000000c0d0dd0f        0x4 build/nanos/obj/policy.o
 .rodata.commands_j
                0x00000000c0d0dd13        0xc build/nanos/obj/policy.o
 .rodata.commands_n
                0x00000000c0d0dd1f        0x6 build/nanos/obj/policy.o
 .rodata.commands_l
                0x00000000c0d0dd25        0xc build/nanos/obj/policy.o
 .rodata.commands_u
                0x00000000c0d0dd31        0xc build/nanos/obj/policy.o
 .rodata..L.str.5
                0x00000000c0d0dd3d       0x16 build/nanos/obj/policy.o
 *fill*         0x00000000c0d0dd53        0x1 00
 .rodata.parse_rawtx_steps
                0x00000000c0d0dd54       0x2c build/nanos/obj/psbt_parse_rawtx.o
 .rodata.parse_rawtxinput_steps
                0x00000000c0d0dd80       0x18 build/nanos/obj/psbt_parse_rawtx.o
 .rodata.parse_rawtxoutput_steps
                0x00000000c0d0dd98       0x10 build/nanos/obj/psbt_parse_rawtx.o
 .rodata.str1.1
                0x00000000c0d0dda8       0x11 build/nanos/obj/script.o
                                         0x15 (size before relaxing)
 *fill*         0x00000000c0d0ddb9        0x3 00
 .rodata.str1.4
                0x00000000c0d0ddbc        0xb build/nanos/obj/script.o
 .rodata.str1.1
                0x00000000c0d0ddc7       0x21 build/nanos/obj/segwit_addr.o
 .rodata..L__const.handler_sign_message.path_str
                0x00000000c0d0dde8       0x61 build/nanos/obj/sign_message.o
 .rodata.SYSM_SIGN_MAGIC
                0x00000000c0d0de49       0x19 build/nanos/obj/sign_message.o
 .rodata.str1.1
                0x00000000c0d0de62        0x5 build/nanos/obj/sign_message.o
 .rodata.str1.1
                0x00000000c0d0de67        0x4 build/nanos/obj/sign_psbt.o
 .rodata.BIP0341_sighash_tag
                0x00000000c0d0de67        0xa build/nanos/obj/sign_psbt.o
 *fill*         0x00000000c0d0de71        0x3 00
 .rodata.USBD_HID_Desc
                0x00000000c0d0de74        0x9 build/nanos/obj/usbd_impl.o
                0x00000000c0d0de74                USBD_HID_Desc
 .rodata.HID_ReportDesc
                0x00000000c0d0de7d       0x22 build/nanos/obj/usbd_impl.o
 .rodata.C_usb_bos
                0x00000000c0d0de9f       0x39 build/nanos/obj/usbd_impl.o
                0x00000000c0d0de9f                C_usb_bos
 .rodata.HID_Desc
                0x00000000c0d0ded8       0x20 build/nanos/obj/usbd_impl.o
                0x00000000c0d0ded8                HID_Desc
 .rodata.C_winusb_string_descriptor
                0x00000000c0d0def8       0x12 build/nanos/obj/usbd_impl.o
 .rodata.C_winusb_guid
                0x00000000c0d0df0a       0x92 build/nanos/obj/usbd_impl.o
 .rodata.C_winusb_request_descriptor
                0x00000000c0d0df9c       0xb2 build/nanos/obj/usbd_impl.o
 *fill*         0x00000000c0d0e04e        0x2 00
 .rodata.USBD_HID
                0x00000000c0d0e050       0x38 build/nanos/obj/usbd_impl.o
 .rodata.USBD_WEBUSB
                0x00000000c0d0e088       0x38 build/nanos/obj/usbd_impl.o
 .rodata.USBD_DeviceDesc
                0x00000000c0d0e0c0       0x12 build/nanos/obj/usbd_impl.o
 .rodata.USBD_LangIDDesc
                0x00000000c0d0e0d2        0x4 build/nanos/obj/usbd_impl.o
 .rodata.USBD_MANUFACTURER_STRING
                0x00000000c0d0e0d6        0xe build/nanos/obj/usbd_impl.o
 .rodata.USBD_PRODUCT_FS_STRING
                0x00000000c0d0e0e4        0xe build/nanos/obj/usbd_impl.o
 .rodata.USB_SERIAL_STRING
                0x00000000c0d0e0f2        0xa build/nanos/obj/usbd_impl.o
 .rodata.C_winusb_wcid
                0x00000000c0d0e0fc       0x28 build/nanos/obj/usbd_impl.o
 .rodata.USBD_CfgDesc
                0x00000000c0d0e124       0x40 build/nanos/obj/usbd_impl.o
 .rodata.USBD_DeviceQualifierDesc
                0x00000000c0d0e164        0xa build/nanos/obj/usbd_impl.o
 *fill*         0x00000000c0d0e16e        0x2 00
 .rodata.ux_layout_bb_elements
                0x00000000c0d0e170       0xa0 build/nanos/obj/ux_layout_bb.o
                0x00000000c0d0e170                ux_layout_bb_elements
 .rodata.str1.1
                0x00000000c0d0e210       0x19 build/nanos/obj/ux_layout_paging.o
                                         0x1a (size before relaxing)
 .rodata.nanos_characters_width
                0x00000000c0d0e229       0x60 build/nanos/obj/ux_layout_paging_compute.o
                0x00000000c0d0e229                nanos_characters_width
 *fill*         0x00000000c0d0e289        0x3 00
 .rodata.ux_layout_pb_elements
                0x00000000c0d0e28c       0xa0 build/nanos/obj/ux_layout_pb.o
                0x00000000c0d0e28c                ux_layout_pb_elements
 .rodata.ux_layout_pbb_elements
                0x00000000c0d0e32c       0xc0 build/nanos/obj/ux_layout_pbb.o
                0x00000000c0d0e32c                ux_layout_pbb_elements
 .rodata.ux_layout_pn_elements
                0x00000000c0d0e3ec       0xa0 build/nanos/obj/ux_layout_pn.o
                0x00000000c0d0e3ec                ux_layout_pn_elements
 .rodata.KNOWN_TOKENS
                0x00000000c0d0e48c       0xe8 build/nanos/obj/wallet.o
 .rodata.str1.1
                0x00000000c0d0e574       0x9c build/nanos/obj/wallet.o
                                         0xb3 (size before relaxing)
 *(.rodata.N[^_]*)
                0x00000000c0d0e610                . = ALIGN (0x4)
                0x00000000c0d0e610                _etext = .
                0x00000000c0d0e640                . = ALIGN (PAGE_SIZE)
 *fill*         0x00000000c0d0e610       0x30 00
                0x00000000c0d0e640                _nvram_data = .
 *(.bss.N_* .rodata.N_*)
                0x00000000c0d0e640                . = ALIGN (PAGE_SIZE)
                0x00000000c0d0e640                _envram_data = .
                0x00000000c0d0e640                _install_parameters = .
                0x00000000c0d0e640                _nvram_end = .

.glue_7         0x00000000c0d0e640        0x0
 .glue_7        0x00000000c0d0e640        0x0 linker stubs

.glue_7t        0x00000000c0d0e640        0x0
 .glue_7t       0x00000000c0d0e640        0x0 linker stubs

.vfp11_veneer   0x00000000c0d0e640        0x0
 .vfp11_veneer  0x00000000c0d0e640        0x0 linker stubs

.v4_bx          0x00000000c0d0e640        0x0
 .v4_bx         0x00000000c0d0e640        0x0 linker stubs

.iplt           0x00000000c0d0e640        0x0
 .iplt          0x00000000c0d0e640        0x0 build/nanos/obj/apdu_parser.o

.data           0x00000000d0000000        0x0
                0x00000000d0000000                . = ALIGN (0x4)
                0x00000000d0000000                _data = .
 *(vtable)
 *(.data*)
                0x00000000d0000000                _edata = .

.igot.plt       0x00000000d0000000        0x0
 .igot.plt      0x00000000d0000000        0x0 build/nanos/obj/apdu_parser.o

.cx_ram         0x0000000020001400      0x400
                0x0000000020001400                _cxram = .
                0x0000000000000000                . = (_cxram + ORIGIN (CXSRAM))
 *(.bss.G_cx)
 .bss.G_cx      0x0000000020001400      0x390 build/nanos/obj/cxram_stash.o
                0x0000000020001400                G_cx
                0x0000000020001800                . = (_cxram + LENGTH (CXSRAM))
 *fill*         0x0000000020001790       0x70 00

.bss            0x0000000020000200     0x1140
                0x0000000020000200                _bss = .
 *(.bss*)
 .bss.G_dispatcher_state
                0x0000000020000200        0x8 build/nanos/obj/dispatcher.o
                0x0000000020000200                G_dispatcher_state
 .bss.g_ui_state
                0x0000000020000208      0x102 build/nanos/obj/display.o
                0x0000000020000208                g_ui_state
 .bss..L_MergedGlobals
                0x000000002000030a        0x2 build/nanos/obj/display.o
 .bss.G_output_len
                0x000000002000030c        0x2 build/nanos/obj/io.o
                0x000000002000030c                G_output_len
 .bss.G_ticks   0x000000002000030e        0x2 build/nanos/obj/io.o
                0x000000002000030e                G_ticks
 .bss.G_interruption_timeout_start_tick
                0x0000000020000310        0x2 build/nanos/obj/io.o
                0x0000000020000310                G_interruption_timeout_start_tick
 .bss.G_is_timeout_active
                0x0000000020000312        0x1 build/nanos/obj/io.o
                0x0000000020000312                G_is_timeout_active
 *fill*         0x0000000020000313        0x1 00
 .bss.G_processing_timeout_start_tick
                0x0000000020000314        0x2 build/nanos/obj/io.o
                0x0000000020000314                G_processing_timeout_start_tick
 .bss.G_was_processing_screen_shown
                0x0000000020000316        0x1 build/nanos/obj/io.o
                0x0000000020000316                G_was_processing_screen_shown
 *fill*         0x0000000020000317        0x1 00
 .bss.G_dispatcher_context
                0x0000000020000318       0x20 build/nanos/obj/main.o
                0x0000000020000318                G_dispatcher_context
 .bss.G_ux      0x0000000020000338      0x108 build/nanos/obj/main.o
                0x0000000020000338                G_ux
 .bss.G_io_seproxyhal_spi_buffer
                0x0000000020000440       0x48 build/nanos/obj/main.o
                0x0000000020000440                G_io_seproxyhal_spi_buffer
 .bss.G_ux_params
                0x0000000020000488        0x8 build/nanos/obj/main.o
                0x0000000020000488                G_ux_params
 .bss.G_io_apdu_buffer
                0x0000000020000490      0x104 build/nanos/obj/os.o
                0x0000000020000490                G_io_apdu_buffer
 .bss.G_io_app  0x0000000020000594       0x18 build/nanos/obj/os_io_seproxyhal.o
                0x0000000020000594                G_io_app
 .bss.G_ux_os   0x00000000200005ac        0x8 build/nanos/obj/os_io_seproxyhal.o
                0x00000000200005ac                G_ux_os
 .bss.G_io_usb_ep_buffer
                0x00000000200005b4       0x40 build/nanos/obj/os_io_seproxyhal.o
                0x00000000200005b4                G_io_usb_ep_buffer
 .bss.G_io_usb_hid_sequence_number
                0x00000000200005f4        0x4 build/nanos/obj/os_io_usb.o
                0x00000000200005f4                G_io_usb_hid_sequence_number
 .bss.G_io_usb_hid_total_length
                0x00000000200005f8        0x4 build/nanos/obj/os_io_usb.o
                0x00000000200005f8                G_io_usb_hid_total_length
 .bss.G_io_usb_hid_remaining_length
                0x00000000200005fc        0x4 build/nanos/obj/os_io_usb.o
                0x00000000200005fc                G_io_usb_hid_remaining_length
 .bss.G_io_usb_hid_current_buffer
                0x0000000020000600        0x4 build/nanos/obj/os_io_usb.o
                0x0000000020000600                G_io_usb_hid_current_buffer
 .bss.G_io_usb_hid_channel
                0x0000000020000604        0x4 build/nanos/obj/os_io_usb.o
                0x0000000020000604                G_io_usb_hid_channel
 .bss.G_swap_state
                0x0000000020000608       0x58 build/nanos/obj/swap_globals.o
                0x0000000020000608                G_swap_state
 .bss.ep_in_stall
                0x0000000020000660        0x4 build/nanos/obj/usbd_conf.o
                0x0000000020000660                ep_in_stall
 .bss.ep_out_stall
                0x0000000020000664        0x4 build/nanos/obj/usbd_conf.o
                0x0000000020000664                ep_out_stall
 .bss.USBD_Device
                0x0000000020000668       0xd4 build/nanos/obj/usbd_core.o
                0x0000000020000668                USBD_Device
                0x000000002000073c                _ebss = .
                0x000000002000073c                . = ALIGN (0x4)
                0x000000002000073c                app_stack_canary = .
                [!provide]                        PROVIDE (app_stack_canary = .)
                0x0000000020000740                . = (. + 0x4)
 *fill*         0x000000002000073c        0x4 00
                0x0000000020000740                _stack_validation = .
                0x0000000020001340                . = (_stack_validation + STACK_SIZE)
 *fill*         0x0000000020000740      0xc00 00
                0x0000000020000800                _stack = (ABSOLUTE (END_STACK) - STACK_SIZE)
                [!provide]                        PROVIDE (_stack = (ABSOLUTE (END_STACK) - STACK_SIZE))
                0x0000000020001400                _estack = ABSOLUTE (END_STACK)
                [!provide]                        PROVIDE (_estack = ABSOLUTE (END_STACK))

DEBUG           0x00000000d0000000        0x8
 libc.a(*)
 libm.a(*)
 libgcc.a(*)
 *(.ARM.exidx* .gnu.linkonce.armexidx.*)
 .ARM.exidx.text.apdu_parser
                0x00000000d0000000        0x0 build/nanos/obj/apdu_parser.o
                                          0x8 (size before relaxing)
 .ARM.exidx.text.base58_decode
                0x00000000d0000000        0x0 build/nanos/obj/base58.o
                                          0x8 (size before relaxing)
 .ARM.exidx.text.base58_encode
                0x00000000d0000000        0x0 build/nanos/obj/base58.o
                                          0x8 (size before relaxing)
 .ARM.exidx.text.bip32_path_read
                0x00000000d0000000        0x0 build/nanos/obj/bip32.o
                                          0x8 (size before relaxing)
 .ARM.exidx.text.bip32_path_format
                0x00000000d0000000        0x0 build/nanos/obj/bip32.o
                                          0x8 (size before relaxing)
 .ARM.exidx.text.is_pubkey_path_standard
                0x00000000d0000000        0x0 build/nanos/obj/bip32.o
                                          0x8 (size before relaxing)
 .ARM.exidx.text.is_address_path_standard
                0x00000000d0000000        0x0 build/nanos/obj/bip32.o
                                          0x8 (size before relaxing)
 .ARM.exidx.text.get_bip44_purpose
                0x00000000d0000000        0x0 build/nanos/obj/bip32.o
                                          0x8 (size before relaxing)
 .ARM.exidx.text.parse_serialized_path
                0x00000000d0000000        0x0 build/nanos/obj/bip32_path.o
                                          0x8 (size before relaxing)
 .ARM.exidx.text.btchip_convert_hex_amount_to_displayable_no_globals
                0x00000000d0000000        0x0 build/nanos/obj/btchip_bcd.o
                                          0x8 (size before relaxing)
 .ARM.exidx.text.buffer_can_read
                0x00000000d0000000        0x0 build/nanos/obj/buffer.o
                                          0x8 (size before relaxing)
 .ARM.exidx.text.buffer_seek_set
                0x00000000d0000000        0x0 build/nanos/obj/buffer.o
                                          0x8 (size before relaxing)
 .ARM.exidx.text.buffer_seek_cur
                0x00000000d0000000        0x0 build/nanos/obj/buffer.o
                                          0x8 (size before relaxing)
 .ARM.exidx.text.buffer_seek_end
                0x00000000d0000000        0x0 build/nanos/obj/buffer.o
                                          0x8 (size before relaxing)
 .ARM.exidx.text.buffer_read_u8
                0x00000000d0000000        0x0 build/nanos/obj/buffer.o
                                          0x8 (size before relaxing)
 .ARM.exidx.text.buffer_peek
                0x00000000d0000000        0x0 build/nanos/obj/buffer.o
                                          0x8 (size before relaxing)
 .ARM.exidx.text.buffer_peek_n
                0x00000000d0000000        0x0 build/nanos/obj/buffer.o
                                          0x8 (size before relaxing)
 .ARM.exidx.text.buffer_read_u32
                0x00000000d0000000        0x0 build/nanos/obj/buffer.o
                                          0x8 (size before relaxing)
 .ARM.exidx.text.buffer_read_varint
                0x00000000d0000000        0x0 build/nanos/obj/buffer.o
                                          0x8 (size before relaxing)
 .ARM.exidx.text.buffer_read_bip32_path
                0x00000000d0000000        0x0 build/nanos/obj/buffer.o
                                          0x8 (size before relaxing)
 .ARM.exidx.text.buffer_read_bytes
                0x00000000d0000000        0x0 build/nanos/obj/buffer.o
                                          0x8 (size before relaxing)
 .ARM.exidx.text.buffer_write_bytes
                0x00000000d0000000        0x0 build/nanos/obj/buffer.o
                                          0x8 (size before relaxing)
 .ARM.exidx.text.buffer_alloc
                0x00000000d0000000        0x0 build/nanos/obj/buffer.o
                                          0x8 (size before relaxing)
 .ARM.exidx.text.call_check_merkle_tree_sorted_with_callback
                0x00000000d0000000        0x0 build/nanos/obj/check_merkle_tree_sorted.o
                                          0x8 (size before relaxing)
 .ARM.exidx.text.compare_wallet_script_at_path
                0x00000000d0000000        0x0 build/nanos/obj/compare_wallet_script_at_path.o
                                          0x8 (size before relaxing)
 .ARM.exidx.text.crypto_derive_private_key
                0x00000000d0000000        0x0 build/nanos/obj/crypto.o
                                          0x8 (size before relaxing)
 .ARM.exidx.text.bip32_CKDpub
                0x00000000d0000000        0x0 build/nanos/obj/crypto.o
                                          0x8 (size before relaxing)
 .ARM.exidx.text.cx_math_cmp
                0x00000000d0000000        0x0 build/nanos/obj/crypto.o
                                          0x8 (size before relaxing)
 .ARM.exidx.text.secp256k1_point
                0x00000000d0000000        0x0 build/nanos/obj/crypto.o
                                          0x8 (size before relaxing)
 .ARM.exidx.text.crypto_get_uncompressed_pubkey
                0x00000000d0000000        0x0 build/nanos/obj/crypto.o
                                          0x8 (size before relaxing)
 .ARM.exidx.text.cx_ecfp_add_point
                0x00000000d0000000        0x0 build/nanos/obj/crypto.o
                                          0x8 (size before relaxing)
 .ARM.exidx.text.crypto_get_key_fingerprint
                0x00000000d0000000        0x0 build/nanos/obj/crypto.o
                                          0x8 (size before relaxing)
 .ARM.exidx.text.crypto_ripemd160
                0x00000000d0000000        0x0 build/nanos/obj/crypto.o
                                          0x8 (size before relaxing)
 .ARM.exidx.text.crypto_hash160
                0x00000000d0000000        0x0 build/nanos/obj/crypto.o
                                          0x8 (size before relaxing)
 .ARM.exidx.text.cx_math_powm
                0x00000000d0000000        0x0 build/nanos/obj/crypto.o
                                          0x8 (size before relaxing)
 .ARM.exidx.text.cx_math_addm
                0x00000000d0000000        0x0 build/nanos/obj/crypto.o
                                          0x8 (size before relaxing)
 .ARM.exidx.text.cx_math_sub
                0x00000000d0000000        0x0 build/nanos/obj/crypto.o
                                          0x8 (size before relaxing)
 .ARM.exidx.text.crypto_get_checksum
                0x00000000d0000000        0x0 build/nanos/obj/crypto.o
                                          0x8 (size before relaxing)
 .ARM.exidx.text.crypto_get_compressed_pubkey_at_path
                0x00000000d0000000        0x0 build/nanos/obj/crypto.o
                                          0x8 (size before relaxing)
 .ARM.exidx.text.cx_ecfp_generate_pair
                0x00000000d0000000        0x0 build/nanos/obj/crypto.o
                                          0x8 (size before relaxing)
 .ARM.exidx.text.crypto_get_master_key_fingerprint
                0x00000000d0000000        0x0 build/nanos/obj/crypto.o
                                          0x8 (size before relaxing)
 .ARM.exidx.text.crypto_derive_symmetric_key
                0x00000000d0000000        0x0 build/nanos/obj/crypto.o
                                          0x8 (size before relaxing)
 .ARM.exidx.text.get_serialized_extended_pubkey_at_path
                0x00000000d0000000        0x0 build/nanos/obj/crypto.o
                                          0x8 (size before relaxing)
 .ARM.exidx.text.base58_encode_address
                0x00000000d0000000        0x0 build/nanos/obj/crypto.o
                                          0x8 (size before relaxing)
 .ARM.exidx.text.crypto_ecdsa_sign_sha256_hash_with_key
                0x00000000d0000000        0x0 build/nanos/obj/crypto.o
                                          0x8 (size before relaxing)
 .ARM.exidx.text.crypto_tr_tagged_hash_init
                0x00000000d0000000        0x0 build/nanos/obj/crypto.o
                                          0x8 (size before relaxing)
 .ARM.exidx.text.crypto_hash_update
                0x00000000d0000000        0x0 build/nanos/obj/crypto.o
                                          0x8 (size before relaxing)
 .ARM.exidx.text.crypto_hash_digest
                0x00000000d0000000        0x0 build/nanos/obj/crypto.o
                                          0x8 (size before relaxing)
 .ARM.exidx.text.crypto_tr_tapleaf_hash_init
                0x00000000d0000000        0x0 build/nanos/obj/crypto.o
                                          0x8 (size before relaxing)
 .ARM.exidx.text.crypto_tr_combine_taptree_hashes
                0x00000000d0000000        0x0 build/nanos/obj/crypto.o
                                          0x8 (size before relaxing)
 .ARM.exidx.text.crypto_tr_tagged_hash
                0x00000000d0000000        0x0 build/nanos/obj/crypto.o
                                          0x8 (size before relaxing)
 .ARM.exidx.text.crypto_tr_tweak_pubkey
                0x00000000d0000000        0x0 build/nanos/obj/crypto.o
                                          0x8 (size before relaxing)
 .ARM.exidx.text.crypto_tr_tweak_seckey
                0x00000000d0000000        0x0 build/nanos/obj/crypto.o
                                          0x8 (size before relaxing)
 .ARM.exidx.text.cx_hash
                0x00000000d0000000        0x0 build/nanos/obj/crypto.o
                                          0x8 (size before relaxing)
 .ARM.exidx.text.get_cxram_buffer
                0x00000000d0000000        0x0 build/nanos/obj/cxram_stash.o
                                          0x8 (size before relaxing)
 .ARM.exidx.text.apdu_dispatcher
                0x00000000d0000000        0x0 build/nanos/obj/dispatcher.o
                                          0x8 (size before relaxing)
 .ARM.exidx.text.add_to_response
                0x00000000d0000000        0x0 build/nanos/obj/dispatcher.o
                                          0x8 (size before relaxing)
 .ARM.exidx.text.finalize_response
                0x00000000d0000000        0x0 build/nanos/obj/dispatcher.o
                                          0x8 (size before relaxing)
 .ARM.exidx.text.process_interruption
                0x00000000d0000000        0x0 build/nanos/obj/dispatcher.o
                                          0x8 (size before relaxing)
 .ARM.exidx.text.send_response
                0x00000000d0000000        0x0 build/nanos/obj/dispatcher.o
                                          0x8 (size before relaxing)
 .ARM.exidx.text.set_ui_dirty
                0x00000000d0000000        0x0 build/nanos/obj/dispatcher.o
                                          0x8 (size before relaxing)
 .ARM.exidx.text.ux_display_reject_if_not_sure_step_validateinit
                0x00000000d0000000        0x0 build/nanos/obj/display.o
                                          0x8 (size before relaxing)
 .ARM.exidx.text.ux_display_approve_step_validateinit
                0x00000000d0000000        0x0 build/nanos/obj/display.o
                                          0x8 (size before relaxing)
 .ARM.exidx.text.ux_display_continue_step_validateinit
                0x00000000d0000000        0x0 build/nanos/obj/display.o
                                          0x8 (size before relaxing)
 .ARM.exidx.text.ux_display_reject_step_validateinit
                0x00000000d0000000        0x0 build/nanos/obj/display.o
                                          0x8 (size before relaxing)
 .ARM.exidx.text.ux_accept_and_send_step_validateinit
                0x00000000d0000000        0x0 build/nanos/obj/display.o
                                          0x8 (size before relaxing)
 .ARM.exidx.text.ux_sign_message_accept_new_validateinit
                0x00000000d0000000        0x0 build/nanos/obj/display.o
                                          0x8 (size before relaxing)
 .ARM.exidx.text.io_ui_process
                0x00000000d0000000        0x0 build/nanos/obj/display.o
                                          0x8 (size before relaxing)
 .ARM.exidx.text.ui_display_pubkey
                0x00000000d0000000        0x0 build/nanos/obj/display.o
                                          0x8 (size before relaxing)
 .ARM.exidx.text.ui_display_message_hash
                0x00000000d0000000        0x0 build/nanos/obj/display.o
                                          0x8 (size before relaxing)
 .ARM.exidx.text.ui_display_register_wallet
                0x00000000d0000000        0x0 build/nanos/obj/display.o
                                          0x8 (size before relaxing)
 .ARM.exidx.text.ui_display_policy_map_cosigner_pubkey
                0x00000000d0000000        0x0 build/nanos/obj/display.o
                                          0x8 (size before relaxing)
 .ARM.exidx.text.ui_display_wallet_address
                0x00000000d0000000        0x0 build/nanos/obj/display.o
                                          0x8 (size before relaxing)
 .ARM.exidx.text.ui_authorize_wallet_spend
                0x00000000d0000000        0x0 build/nanos/obj/display.o
                                          0x8 (size before relaxing)
 .ARM.exidx.text.ui_warn_external_inputs
                0x00000000d0000000        0x0 build/nanos/obj/display.o
                                          0x8 (size before relaxing)
 .ARM.exidx.text.ui_warn_unverified_segwit_inputs
                0x00000000d0000000        0x0 build/nanos/obj/display.o
                                          0x8 (size before relaxing)
 .ARM.exidx.text.ui_warn_nondefault_sighash
                0x00000000d0000000        0x0 build/nanos/obj/display.o
                                          0x8 (size before relaxing)
 .ARM.exidx.text.ui_validate_output
                0x00000000d0000000        0x0 build/nanos/obj/display.o
                                          0x8 (size before relaxing)
 .ARM.exidx.text.ui_validate_transaction
                0x00000000d0000000        0x0 build/nanos/obj/display.o
                                          0x8 (size before relaxing)
 .ARM.exidx.text.format_sats_amount
                0x00000000d0000000        0x0 build/nanos/obj/display_utils.o
                                          0x8 (size before relaxing)
 .ARM.exidx.text.div10
                0x00000000d0000000        0x0 build/nanos/obj/display_utils.o
                                          0x8 (size before relaxing)
 .ARM.exidx.text.extract_bip32_derivation
                0x00000000d0000000        0x0 build/nanos/obj/extract_bip32_derivation.o
                                          0x8 (size before relaxing)
 .ARM.exidx.text.fpt_der_data_len_callback
                0x00000000d0000000        0x0 build/nanos/obj/extract_bip32_derivation.o
                                          0x8 (size before relaxing)
 .ARM.exidx.text.fpt_der_data_callback
                0x00000000d0000000        0x0 build/nanos/obj/extract_bip32_derivation.o
                                          0x8 (size before relaxing)
 .ARM.exidx.text.handler_get_extended_pubkey
                0x00000000d0000000        0x0 build/nanos/obj/get_extended_pubkey.o
                                          0x8 (size before relaxing)
 .ARM.exidx.text.handler_get_master_fingerprint
                0x00000000d0000000        0x0 build/nanos/obj/get_master_fingerprint.o
                                          0x8 (size before relaxing)
 .ARM.exidx.text.call_get_merkle_leaf_element
                0x00000000d0000000        0x0 build/nanos/obj/get_merkle_leaf_element.o
                                          0x8 (size before relaxing)
 .ARM.exidx.text.call_get_merkle_leaf_hash
                0x00000000d0000000        0x0 build/nanos/obj/get_merkle_leaf_hash.o
                                          0x8 (size before relaxing)
 .ARM.exidx.text.call_get_merkle_leaf_index
                0x00000000d0000000        0x0 build/nanos/obj/get_merkle_leaf_index.o
                                          0x8 (size before relaxing)
 .ARM.exidx.text.call_get_merkle_preimage
                0x00000000d0000000        0x0 build/nanos/obj/get_merkle_preimage.o
                                          0x8 (size before relaxing)
 .ARM.exidx.text.crypto_hash_update
                0x00000000d0000000        0x0 build/nanos/obj/get_merkle_preimage.o
                                          0x8 (size before relaxing)
 .ARM.exidx.text.cx_hash
                0x00000000d0000000        0x0 build/nanos/obj/get_merkle_preimage.o
                                          0x8 (size before relaxing)
 .ARM.exidx.text.call_get_merkleized_map_with_callback
                0x00000000d0000000        0x0 build/nanos/obj/get_merkleized_map.o
                                          0x8 (size before relaxing)
 .ARM.exidx.text.call_get_merkleized_map_value
                0x00000000d0000000        0x0 build/nanos/obj/get_merkleized_map_value.o
                                          0x8 (size before relaxing)
 .ARM.exidx.text.call_get_merkleized_map_value_hash
                0x00000000d0000000        0x0 build/nanos/obj/get_merkleized_map_value_hash.o
                                          0x8 (size before relaxing)
 .ARM.exidx.text.call_get_preimage
                0x00000000d0000000        0x0 build/nanos/obj/get_preimage.o
                                          0x8 (size before relaxing)
 .ARM.exidx.text.crypto_hash_update
                0x00000000d0000000        0x0 build/nanos/obj/get_preimage.o
                                          0x8 (size before relaxing)
 .ARM.exidx.text.cx_hash
                0x00000000d0000000        0x0 build/nanos/obj/get_preimage.o
                                          0x8 (size before relaxing)
 .ARM.exidx.text.handler_get_wallet_address
                0x00000000d0000000        0x0 build/nanos/obj/get_wallet_address.o
                                          0x8 (size before relaxing)
 .ARM.exidx.text.get_address_from_compressed_public_key
                0x00000000d0000000        0x0 build/nanos/obj/handle_check_address.o
                                          0x8 (size before relaxing)
 .ARM.exidx.text.handle_check_address
                0x00000000d0000000        0x0 build/nanos/obj/handle_check_address.o
                                          0x8 (size before relaxing)
 .ARM.exidx.text.handle_get_printable_amount
                0x00000000d0000000        0x0 build/nanos/obj/handle_get_printable_amount.o
                                          0x8 (size before relaxing)
 .ARM.exidx.text.copy_transaction_parameters
                0x00000000d0000000        0x0 build/nanos/obj/handle_swap_sign_transaction.o
                                          0x8 (size before relaxing)
 .ARM.exidx.text.io_seproxyhal_display
                0x00000000d0000000        0x0 build/nanos/obj/io.o
                                          0x8 (size before relaxing)
 .ARM.exidx.text.io_start_interruption_timeout
                0x00000000d0000000        0x0 build/nanos/obj/io.o
                                          0x8 (size before relaxing)
 .ARM.exidx.text.io_clear_interruption_timeout
                0x00000000d0000000        0x0 build/nanos/obj/io.o
                                          0x8 (size before relaxing)
 .ARM.exidx.text.io_start_processing_timeout
                0x00000000d0000000        0x0 build/nanos/obj/io.o
                                          0x8 (size before relaxing)
 .ARM.exidx.text.io_clear_processing_timeout
                0x00000000d0000000        0x0 build/nanos/obj/io.o
                                          0x8 (size before relaxing)
 .ARM.exidx.text.io_reset_timeouts
                0x00000000d0000000        0x0 build/nanos/obj/io.o
                                          0x8 (size before relaxing)
 .ARM.exidx.text.io_event
                0x00000000d0000000        0x0 build/nanos/obj/io.o
                                          0x8 (size before relaxing)
 .ARM.exidx.text.io_exchange_al
                0x00000000d0000000        0x0 build/nanos/obj/io.o
                                          0x8 (size before relaxing)
 .ARM.exidx.text.io_add_to_response
                0x00000000d0000000        0x0 build/nanos/obj/io.o
                                          0x8 (size before relaxing)
 .ARM.exidx.text.io_finalize_response
                0x00000000d0000000        0x0 build/nanos/obj/io.o
                                          0x8 (size before relaxing)
 .ARM.exidx.text.io_set_response
                0x00000000d0000000        0x0 build/nanos/obj/io.o
                                          0x8 (size before relaxing)
 .ARM.exidx.text.io_confirm_response
                0x00000000d0000000        0x0 build/nanos/obj/io.o
                                          0x8 (size before relaxing)
 .ARM.exidx.text.io_send_response
                0x00000000d0000000        0x0 build/nanos/obj/io.o
                                          0x8 (size before relaxing)
 .ARM.exidx.text.io_send_sw
                0x00000000d0000000        0x0 build/nanos/obj/io.o
                                          0x8 (size before relaxing)
 .ARM.exidx.text.app_main
                0x00000000d0000000        0x0 build/nanos/obj/main.o
                                          0x8 (size before relaxing)
 .ARM.exidx.text.app_exit
                0x00000000d0000000        0x0 build/nanos/obj/main.o
                                          0x8 (size before relaxing)
 .ARM.exidx.text.coin_main
                0x00000000d0000000        0x0 build/nanos/obj/main.o
                                          0x8 (size before relaxing)
 .ARM.exidx.text.swap_library_main
                0x00000000d0000000        0x0 build/nanos/obj/main.o
                                          0x8 (size before relaxing)
 .ARM.exidx.boot
                0x00000000d0000000        0x8 build/nanos/obj/main.o
 .ARM.exidx.text.ux_menu_about_step_validateinit
                0x00000000d0000008        0x0 build/nanos/obj/menu.o
                                          0x8 (size before relaxing)
 .ARM.exidx.text.ui_menu_about
                0x00000000d0000008        0x0 build/nanos/obj/menu.o
                                          0x8 (size before relaxing)
 .ARM.exidx.text.ux_menu_exit_step_validateinit
                0x00000000d0000008        0x0 build/nanos/obj/menu.o
                                          0x8 (size before relaxing)
 .ARM.exidx.text.ui_menu_main
                0x00000000d0000008        0x0 build/nanos/obj/menu.o
                                          0x8 (size before relaxing)
 .ARM.exidx.text.ux_menu_back_step_validateinit
                0x00000000d0000008        0x0 build/nanos/obj/menu.o
                                          0x8 (size before relaxing)
 .ARM.exidx.text.merkle_compute_element_hash
                0x00000000d0000008        0x0 build/nanos/obj/merkle.o
                                          0x8 (size before relaxing)
 .ARM.exidx.text.crypto_hash_update
                0x00000000d0000008        0x0 build/nanos/obj/merkle.o
                                          0x8 (size before relaxing)
 .ARM.exidx.text.merkle_combine_hashes
                0x00000000d0000008        0x0 build/nanos/obj/merkle.o
                                          0x8 (size before relaxing)
 .ARM.exidx.text.merkle_get_ith_direction
                0x00000000d0000008        0x0 build/nanos/obj/merkle.o
                                          0x8 (size before relaxing)
 .ARM.exidx.text.cx_hash
                0x00000000d0000008        0x0 build/nanos/obj/merkle.o
                                          0x8 (size before relaxing)
 .ARM.exidx.text.os_boot
                0x00000000d0000008        0x0 build/nanos/obj/os.o
                                          0x8 (size before relaxing)
 .ARM.exidx.text.os_longjmp
                0x00000000d0000008        0x0 build/nanos/obj/os.o
                                          0x8 (size before relaxing)
 .ARM.exidx.text.os_secure_memcmp
                0x00000000d0000008        0x0 build/nanos/obj/os.o
                                          0x8 (size before relaxing)
 .ARM.exidx.text.io_seproxyhal_general_status
                0x00000000d0000008        0x0 build/nanos/obj/os_io_seproxyhal.o
                                          0x8 (size before relaxing)
 .ARM.exidx.text.io_seproxyhal_handle_usb_event
                0x00000000d0000008        0x0 build/nanos/obj/os_io_seproxyhal.o
                                          0x8 (size before relaxing)
 .ARM.exidx.text.io_seproxyhal_get_ep_rx_size
                0x00000000d0000008        0x0 build/nanos/obj/os_io_seproxyhal.o
                                          0x8 (size before relaxing)
 .ARM.exidx.text.io_seproxyhal_handle_usb_ep_xfer_event
                0x00000000d0000008        0x0 build/nanos/obj/os_io_seproxyhal.o
                                          0x8 (size before relaxing)
 .ARM.exidx.text.io_usb_send_ep
                0x00000000d0000008        0x0 build/nanos/obj/os_io_seproxyhal.o
                                          0x8 (size before relaxing)
 .ARM.exidx.text.io_usb_send_apdu_data
                0x00000000d0000008        0x0 build/nanos/obj/os_io_seproxyhal.o
                                          0x8 (size before relaxing)
 .ARM.exidx.text.io_usb_send_apdu_data_ep0x83
                0x00000000d0000008        0x0 build/nanos/obj/os_io_seproxyhal.o
                                          0x8 (size before relaxing)
 .ARM.exidx.text.io_seproxyhal_handle_capdu_event
                0x00000000d0000008        0x0 build/nanos/obj/os_io_seproxyhal.o
                                          0x8 (size before relaxing)
 .ARM.exidx.text.io_seproxyhal_handle_event
                0x00000000d0000008        0x0 build/nanos/obj/os_io_seproxyhal.o
                                          0x8 (size before relaxing)
 .ARM.exidx.text.io_seproxyhal_init
                0x00000000d0000008        0x0 build/nanos/obj/os_io_seproxyhal.o
                                          0x8 (size before relaxing)
 .ARM.exidx.text.io_seproxyhal_init_ux
                0x00000000d0000008        0x0 build/nanos/obj/os_io_seproxyhal.o
                                          0x8 (size before relaxing)
 .ARM.exidx.text.io_seproxyhal_init_button
                0x00000000d0000008        0x0 build/nanos/obj/os_io_seproxyhal.o
                                          0x8 (size before relaxing)
 .ARM.exidx.text.io_seproxyhal_display_icon
                0x00000000d0000008        0x0 build/nanos/obj/os_io_seproxyhal.o
                                          0x8 (size before relaxing)
 .ARM.exidx.text.io_seproxyhal_display_default
                0x00000000d0000008        0x0 build/nanos/obj/os_io_seproxyhal.o
                                          0x8 (size before relaxing)
 .ARM.exidx.text.io_seproxyhal_button_push
                0x00000000d0000008        0x0 build/nanos/obj/os_io_seproxyhal.o
                                          0x8 (size before relaxing)
 .ARM.exidx.text.io_seproxyhal_se_reset
                0x00000000d0000008        0x0 build/nanos/obj/os_io_seproxyhal.o
                                          0x8 (size before relaxing)
 .ARM.exidx.text.os_io_seproxyhal_get_app_name_and_version
                0x00000000d0000008        0x0 build/nanos/obj/os_io_seproxyhal.o
                                          0x8 (size before relaxing)
 .ARM.exidx.text.io_exchange
                0x00000000d0000008        0x0 build/nanos/obj/os_io_seproxyhal.o
                                          0x8 (size before relaxing)
 .ARM.exidx.text.os_io_seph_recv_and_process
                0x00000000d0000008        0x0 build/nanos/obj/os_io_seproxyhal.o
                                          0x8 (size before relaxing)
 .ARM.exidx.text.io_usb_hid_receive
                0x00000000d0000008        0x0 build/nanos/obj/os_io_usb.o
                                          0x8 (size before relaxing)
 .ARM.exidx.text.io_usb_hid_init
                0x00000000d0000008        0x0 build/nanos/obj/os_io_usb.o
                                          0x8 (size before relaxing)
 .ARM.exidx.text.io_usb_hid_sent
                0x00000000d0000008        0x0 build/nanos/obj/os_io_usb.o
                                          0x8 (size before relaxing)
 .ARM.exidx.text.io_usb_hid_send
                0x00000000d0000008        0x0 build/nanos/obj/os_io_usb.o
                                          0x8 (size before relaxing)
 .ARM.exidx.text.snprintf
                0x00000000d0000008        0x0 build/nanos/obj/os_printf.o
                                          0x8 (size before relaxing)
 .ARM.exidx.text.dbuffer_get_length
                0x00000000d0000008        0x0 build/nanos/obj/parser.o
                                          0x8 (size before relaxing)
 .ARM.exidx.text.dbuffer_can_read
                0x00000000d0000008        0x0 build/nanos/obj/parser.o
                                          0x8 (size before relaxing)
 .ARM.exidx.text.dbuffer_read_bytes
                0x00000000d0000008        0x0 build/nanos/obj/parser.o
                                          0x8 (size before relaxing)
 .ARM.exidx.text.dbuffer_read_u8
                0x00000000d0000008        0x0 build/nanos/obj/parser.o
                                          0x8 (size before relaxing)
 .ARM.exidx.text.dbuffer_read_varint
                0x00000000d0000008        0x0 build/nanos/obj/parser.o
                                          0x8 (size before relaxing)
 .ARM.exidx.text.parser_consolidate_buffers
                0x00000000d0000008        0x0 build/nanos/obj/parser.o
                                          0x8 (size before relaxing)
 .ARM.exidx.text.parser_run
                0x00000000d0000008        0x0 build/nanos/obj/parser.o
                                          0x8 (size before relaxing)
 .ARM.exidx.text.pic_internal
                0x00000000d0000008        0x0 build/nanos/obj/pic.o
                                          0x8 (size before relaxing)
 .ARM.exidx.text.pic
                0x00000000d0000008        0x0 build/nanos/obj/pic.o
                                          0x8 (size before relaxing)
 .ARM.exidx.text.read_and_parse_wallet_policy
                0x00000000d0000008        0x0 build/nanos/obj/policy.o
                                          0x8 (size before relaxing)
 .ARM.exidx.text.compute_taptree_hash
                0x00000000d0000008        0x0 build/nanos/obj/policy.o
                                          0x8 (size before relaxing)
 .ARM.exidx.text.compute_tapleaf_hash
                0x00000000d0000008        0x0 build/nanos/obj/policy.o
                                          0x8 (size before relaxing)
 .ARM.exidx.text.compute_and_combine_taptree_child_hashes
                0x00000000d0000008        0x0 build/nanos/obj/policy.o
                                          0x8 (size before relaxing)
 .ARM.exidx.text.get_wallet_script
                0x00000000d0000008        0x0 build/nanos/obj/policy.o
                                          0x8 (size before relaxing)
 .ARM.exidx.text.get_derived_pubkey
                0x00000000d0000008        0x0 build/nanos/obj/policy.o
                                          0x8 (size before relaxing)
 .ARM.exidx.text.get_wallet_internal_script_hash
                0x00000000d0000008        0x0 build/nanos/obj/policy.o
                                          0x8 (size before relaxing)
 .ARM.exidx.text.crypto_hash_digest
                0x00000000d0000008        0x0 build/nanos/obj/policy.o
                                          0x8 (size before relaxing)
 .ARM.exidx.text.crypto_hash_update_u8
                0x00000000d0000008        0x0 build/nanos/obj/policy.o
                                          0x8 (size before relaxing)
 .ARM.exidx.text.crypto_hash_update
                0x00000000d0000008        0x0 build/nanos/obj/policy.o
                                          0x8 (size before relaxing)
 .ARM.exidx.text.execute_processor
                0x00000000d0000008        0x0 build/nanos/obj/policy.o
                                          0x8 (size before relaxing)
 .ARM.exidx.text.process_generic_node
                0x00000000d0000008        0x0 build/nanos/obj/policy.o
                                          0x8 (size before relaxing)
 .ARM.exidx.text.process_pkh_wpkh_node
                0x00000000d0000008        0x0 build/nanos/obj/policy.o
                                          0x8 (size before relaxing)
 .ARM.exidx.text.process_thresh_node
                0x00000000d0000008        0x0 build/nanos/obj/policy.o
                                          0x8 (size before relaxing)
 .ARM.exidx.text.process_multi_sortedmulti_node
                0x00000000d0000008        0x0 build/nanos/obj/policy.o
                                          0x8 (size before relaxing)
 .ARM.exidx.text.process_multi_a_sortedmulti_a_node
                0x00000000d0000008        0x0 build/nanos/obj/policy.o
                                          0x8 (size before relaxing)
 .ARM.exidx.text.get_policy_address_type
                0x00000000d0000008        0x0 build/nanos/obj/policy.o
                                          0x8 (size before relaxing)
 .ARM.exidx.text.compute_wallet_hmac
                0x00000000d0000008        0x0 build/nanos/obj/policy.o
                                          0x8 (size before relaxing)
 .ARM.exidx.text.check_wallet_hmac
                0x00000000d0000008        0x0 build/nanos/obj/policy.o
                                          0x8 (size before relaxing)
 .ARM.exidx.text.get_key_placeholder_by_index
                0x00000000d0000008        0x0 build/nanos/obj/policy.o
                                          0x8 (size before relaxing)
 .ARM.exidx.text.get_key_placeholder_by_index_in_tree
                0x00000000d0000008        0x0 build/nanos/obj/policy.o
                                          0x8 (size before relaxing)
 .ARM.exidx.text.is_policy_sane
                0x00000000d0000008        0x0 build/nanos/obj/policy.o
                                          0x8 (size before relaxing)
 .ARM.exidx.text.get_xpub_from_merkle_tree
                0x00000000d0000008        0x0 build/nanos/obj/policy.o
                                          0x8 (size before relaxing)
 .ARM.exidx.text.get_extended_pubkey
                0x00000000d0000008        0x0 build/nanos/obj/policy.o
                                          0x8 (size before relaxing)
 .ARM.exidx.text.cx_hash
                0x00000000d0000008        0x0 build/nanos/obj/policy.o
                                          0x8 (size before relaxing)
 .ARM.exidx.text.update_output_u8
                0x00000000d0000008        0x0 build/nanos/obj/policy.o
                                          0x8 (size before relaxing)
 .ARM.exidx.text.update_output_op_v
                0x00000000d0000008        0x0 build/nanos/obj/policy.o
                                          0x8 (size before relaxing)
 .ARM.exidx.text.update_output
                0x00000000d0000008        0x0 build/nanos/obj/policy.o
                                          0x8 (size before relaxing)
 .ARM.exidx.text.update_output_push_u32
                0x00000000d0000008        0x0 build/nanos/obj/policy.o
                                          0x8 (size before relaxing)
 .ARM.exidx.text.state_stack_push
                0x00000000d0000008        0x0 build/nanos/obj/policy.o
                                          0x8 (size before relaxing)
 .ARM.exidx.text.cmp_arrays
                0x00000000d0000008        0x0 build/nanos/obj/policy.o
                                          0x8 (size before relaxing)
 .ARM.exidx.text.call_psbt_parse_rawtx
                0x00000000d0000008        0x0 build/nanos/obj/psbt_parse_rawtx.o
                                          0x8 (size before relaxing)
 .ARM.exidx.text.cb_process_data
                0x00000000d0000008        0x0 build/nanos/obj/psbt_parse_rawtx.o
                                          0x8 (size before relaxing)
 .ARM.exidx.text.parse_rawtx_version
                0x00000000d0000008        0x0 build/nanos/obj/psbt_parse_rawtx.o
                                          0x8 (size before relaxing)
 .ARM.exidx.text.parse_rawtx_check_segwit
                0x00000000d0000008        0x0 build/nanos/obj/psbt_parse_rawtx.o
                                          0x8 (size before relaxing)
 .ARM.exidx.text.parse_rawtx_input_count
                0x00000000d0000008        0x0 build/nanos/obj/psbt_parse_rawtx.o
                                          0x8 (size before relaxing)
 .ARM.exidx.text.parse_rawtx_inputs_init
                0x00000000d0000008        0x0 build/nanos/obj/psbt_parse_rawtx.o
                                          0x8 (size before relaxing)
 .ARM.exidx.text.parse_rawtx_inputs
                0x00000000d0000008        0x0 build/nanos/obj/psbt_parse_rawtx.o
                                          0x8 (size before relaxing)
 .ARM.exidx.text.parse_rawtx_output_count
                0x00000000d0000008        0x0 build/nanos/obj/psbt_parse_rawtx.o
                                          0x8 (size before relaxing)
 .ARM.exidx.text.parse_rawtx_outputs_init
                0x00000000d0000008        0x0 build/nanos/obj/psbt_parse_rawtx.o
                                          0x8 (size before relaxing)
 .ARM.exidx.text.parse_rawtx_outputs
                0x00000000d0000008        0x0 build/nanos/obj/psbt_parse_rawtx.o
                                          0x8 (size before relaxing)
 .ARM.exidx.text.parse_rawtx_witnesses_init
                0x00000000d0000008        0x0 build/nanos/obj/psbt_parse_rawtx.o
                                          0x8 (size before relaxing)
 .ARM.exidx.text.parse_rawtx_witnesses
                0x00000000d0000008        0x0 build/nanos/obj/psbt_parse_rawtx.o
                                          0x8 (size before relaxing)
 .ARM.exidx.text.parse_rawtx_locktime
                0x00000000d0000008        0x0 build/nanos/obj/psbt_parse_rawtx.o
                                          0x8 (size before relaxing)
 .ARM.exidx.text.crypto_hash_update
                0x00000000d0000008        0x0 build/nanos/obj/psbt_parse_rawtx.o
                                          0x8 (size before relaxing)
 .ARM.exidx.text.cx_hash
                0x00000000d0000008        0x0 build/nanos/obj/psbt_parse_rawtx.o
                                          0x8 (size before relaxing)
 .ARM.exidx.text.crypto_hash_update_varint
                0x00000000d0000008        0x0 build/nanos/obj/psbt_parse_rawtx.o
                                          0x8 (size before relaxing)
 .ARM.exidx.text.parse_rawtxinput_txid
                0x00000000d0000008        0x0 build/nanos/obj/psbt_parse_rawtx.o
                                          0x8 (size before relaxing)
 .ARM.exidx.text.parse_rawtxinput_vout
                0x00000000d0000008        0x0 build/nanos/obj/psbt_parse_rawtx.o
                                          0x8 (size before relaxing)
 .ARM.exidx.text.parse_rawtxinput_scriptsig_size
                0x00000000d0000008        0x0 build/nanos/obj/psbt_parse_rawtx.o
                                          0x8 (size before relaxing)
 .ARM.exidx.text.parse_rawtxinput_scriptsig_init
                0x00000000d0000008        0x0 build/nanos/obj/psbt_parse_rawtx.o
                                          0x8 (size before relaxing)
 .ARM.exidx.text.parse_rawtxinput_scriptsig
                0x00000000d0000008        0x0 build/nanos/obj/psbt_parse_rawtx.o
                                          0x8 (size before relaxing)
 .ARM.exidx.text.parse_rawtxinput_sequence
                0x00000000d0000008        0x0 build/nanos/obj/psbt_parse_rawtx.o
                                          0x8 (size before relaxing)
 .ARM.exidx.text.parse_rawtxoutput_value
                0x00000000d0000008        0x0 build/nanos/obj/psbt_parse_rawtx.o
                                          0x8 (size before relaxing)
 .ARM.exidx.text.parse_rawtxoutput_scriptpubkey_size
                0x00000000d0000008        0x0 build/nanos/obj/psbt_parse_rawtx.o
                                          0x8 (size before relaxing)
 .ARM.exidx.text.parse_rawtxoutput_scriptpubkey_init
                0x00000000d0000008        0x0 build/nanos/obj/psbt_parse_rawtx.o
                                          0x8 (size before relaxing)
 .ARM.exidx.text.parse_rawtxoutput_scriptpubkey
                0x00000000d0000008        0x0 build/nanos/obj/psbt_parse_rawtx.o
                                          0x8 (size before relaxing)
 .ARM.exidx.text.read_u32_be
                0x00000000d0000008        0x0 build/nanos/obj/read.o
                                          0x8 (size before relaxing)
 .ARM.exidx.text.read_u64_be
                0x00000000d0000008        0x0 build/nanos/obj/read.o
                                          0x8 (size before relaxing)
 .ARM.exidx.text.read_u16_le
                0x00000000d0000008        0x0 build/nanos/obj/read.o
                                          0x8 (size before relaxing)
 .ARM.exidx.text.read_u32_le
                0x00000000d0000008        0x0 build/nanos/obj/read.o
                                          0x8 (size before relaxing)
 .ARM.exidx.text.read_u64_le
                0x00000000d0000008        0x0 build/nanos/obj/read.o
                                          0x8 (size before relaxing)
 .ARM.exidx.text.handler_register_wallet
                0x00000000d0000008        0x0 build/nanos/obj/register_wallet.o
                                          0x8 (size before relaxing)
 .ARM.exidx.text.get_push_script_size
                0x00000000d0000008        0x0 build/nanos/obj/script.o
                                          0x8 (size before relaxing)
 .ARM.exidx.text.get_script_type
                0x00000000d0000008        0x0 build/nanos/obj/script.o
                                          0x8 (size before relaxing)
 .ARM.exidx.text.get_script_address
                0x00000000d0000008        0x0 build/nanos/obj/script.o
                                          0x8 (size before relaxing)
 .ARM.exidx.text.format_opscript_script
                0x00000000d0000008        0x0 build/nanos/obj/script.o
                                          0x8 (size before relaxing)
 .ARM.exidx.text.bech32_encode
                0x00000000d0000008        0x0 build/nanos/obj/segwit_addr.o
                                          0x8 (size before relaxing)
 .ARM.exidx.text.bech32_polymod_step
                0x00000000d0000008        0x0 build/nanos/obj/segwit_addr.o
                                          0x8 (size before relaxing)
 .ARM.exidx.text.segwit_addr_encode
                0x00000000d0000008        0x0 build/nanos/obj/segwit_addr.o
                                          0x8 (size before relaxing)
 .ARM.exidx.text.convert_bits
                0x00000000d0000008        0x0 build/nanos/obj/segwit_addr.o
                                          0x8 (size before relaxing)
 .ARM.exidx.text.handler_sign_message
                0x00000000d0000008        0x0 build/nanos/obj/sign_message.o
                                          0x8 (size before relaxing)
 .ARM.exidx.text.crypto_hash_update
                0x00000000d0000008        0x0 build/nanos/obj/sign_message.o
                                          0x8 (size before relaxing)
 .ARM.exidx.text.crypto_hash_digest
                0x00000000d0000008        0x0 build/nanos/obj/sign_message.o
                                          0x8 (size before relaxing)
 .ARM.exidx.text.cx_hash
                0x00000000d0000008        0x0 build/nanos/obj/sign_message.o
                                          0x8 (size before relaxing)
 .ARM.exidx.text.handler_sign_psbt
                0x00000000d0000008        0x0 build/nanos/obj/sign_psbt.o
                                          0x8 (size before relaxing)
 .ARM.exidx.text.init_global_state
                0x00000000d0000008        0x0 build/nanos/obj/sign_psbt.o
                                          0x8 (size before relaxing)
 .ARM.exidx.text.preprocess_inputs
                0x00000000d0000008        0x0 build/nanos/obj/sign_psbt.o
                                          0x8 (size before relaxing)
 .ARM.exidx.text.show_alerts
                0x00000000d0000008        0x0 build/nanos/obj/sign_psbt.o
                                          0x8 (size before relaxing)
 .ARM.exidx.text.process_outputs
                0x00000000d0000008        0x0 build/nanos/obj/sign_psbt.o
                                          0x8 (size before relaxing)
 .ARM.exidx.text.confirm_transaction
                0x00000000d0000008        0x0 build/nanos/obj/sign_psbt.o
                                          0x8 (size before relaxing)
 .ARM.exidx.text.sign_transaction
                0x00000000d0000008        0x0 build/nanos/obj/sign_psbt.o
                                          0x8 (size before relaxing)
 .ARM.exidx.text.find_first_internal_key_placeholder
                0x00000000d0000008        0x0 build/nanos/obj/sign_psbt.o
                                          0x8 (size before relaxing)
 .ARM.exidx.text.input_keys_callback
                0x00000000d0000008        0x0 build/nanos/obj/sign_psbt.o
                                          0x8 (size before relaxing)
 .ARM.exidx.text.get_amount_scriptpubkey_from_psbt_nonwitness
                0x00000000d0000008        0x0 build/nanos/obj/sign_psbt.o
                                          0x8 (size before relaxing)
 .ARM.exidx.text.get_amount_scriptpubkey_from_psbt_witness
                0x00000000d0000008        0x0 build/nanos/obj/sign_psbt.o
                                          0x8 (size before relaxing)
 .ARM.exidx.text.is_in_out_internal
                0x00000000d0000008        0x0 build/nanos/obj/sign_psbt.o
                                          0x8 (size before relaxing)
 .ARM.exidx.text.get_segwit_version
                0x00000000d0000008        0x0 build/nanos/obj/sign_psbt.o
                                          0x8 (size before relaxing)
 .ARM.exidx.text.call_get_merkleized_map_value_u32_le
                0x00000000d0000008        0x0 build/nanos/obj/sign_psbt.o
                                          0x8 (size before relaxing)
 .ARM.exidx.text.fill_placeholder_info_if_internal
                0x00000000d0000008        0x0 build/nanos/obj/sign_psbt.o
                                          0x8 (size before relaxing)
 .ARM.exidx.text.read_change_and_index_from_psbt_bip32_derivation
                0x00000000d0000008        0x0 build/nanos/obj/sign_psbt.o
                                          0x8 (size before relaxing)
 .ARM.exidx.text.output_keys_callback
                0x00000000d0000008        0x0 build/nanos/obj/sign_psbt.o
                                          0x8 (size before relaxing)
 .ARM.exidx.text.display_output
                0x00000000d0000008        0x0 build/nanos/obj/sign_psbt.o
                                          0x8 (size before relaxing)
 .ARM.exidx.text.compute_segwit_hashes
                0x00000000d0000008        0x0 build/nanos/obj/sign_psbt.o
                                          0x8 (size before relaxing)
 .ARM.exidx.text.fill_taproot_placeholder_info
                0x00000000d0000008        0x0 build/nanos/obj/sign_psbt.o
                                          0x8 (size before relaxing)
 .ARM.exidx.text.sign_transaction_input
                0x00000000d0000008        0x0 build/nanos/obj/sign_psbt.o
                                          0x8 (size before relaxing)
 .ARM.exidx.text.call_get_merkleized_map
                0x00000000d0000008        0x0 build/nanos/obj/sign_psbt.o
                                          0x8 (size before relaxing)
 .ARM.exidx.text.crypto_hash_update
                0x00000000d0000008        0x0 build/nanos/obj/sign_psbt.o
                                          0x8 (size before relaxing)
 .ARM.exidx.text.crypto_hash_digest
                0x00000000d0000008        0x0 build/nanos/obj/sign_psbt.o
                                          0x8 (size before relaxing)
 .ARM.exidx.text.hash_outputs
                0x00000000d0000008        0x0 build/nanos/obj/sign_psbt.o
                                          0x8 (size before relaxing)
 .ARM.exidx.text.crypto_hash_update_varint
                0x00000000d0000008        0x0 build/nanos/obj/sign_psbt.o
                                          0x8 (size before relaxing)
 .ARM.exidx.text.cx_hash
                0x00000000d0000008        0x0 build/nanos/obj/sign_psbt.o
                                          0x8 (size before relaxing)
 .ARM.exidx.text.hash_output_n
                0x00000000d0000008        0x0 build/nanos/obj/sign_psbt.o
                                          0x8 (size before relaxing)
 .ARM.exidx.text.crypto_hash_update_u8
                0x00000000d0000008        0x0 build/nanos/obj/sign_psbt.o
                                          0x8 (size before relaxing)
 .ARM.exidx.text.compute_sighash_legacy
                0x00000000d0000008        0x0 build/nanos/obj/sign_psbt.o
                                          0x8 (size before relaxing)
 .ARM.exidx.text.sign_sighash_ecdsa_and_yield
                0x00000000d0000008        0x0 build/nanos/obj/sign_psbt.o
                                          0x8 (size before relaxing)
 .ARM.exidx.text.compute_sighash_segwitv0
                0x00000000d0000008        0x0 build/nanos/obj/sign_psbt.o
                                          0x8 (size before relaxing)
 .ARM.exidx.text.compute_sighash_segwitv1
                0x00000000d0000008        0x0 build/nanos/obj/sign_psbt.o
                                          0x8 (size before relaxing)
 .ARM.exidx.text.sign_sighash_schnorr_and_yield
                0x00000000d0000008        0x0 build/nanos/obj/sign_psbt.o
                                          0x8 (size before relaxing)
 .ARM.exidx.text.yield_signature
                0x00000000d0000008        0x0 build/nanos/obj/sign_psbt.o
                                          0x8 (size before relaxing)
 .ARM.exidx.text.crypto_hash_update_u32
                0x00000000d0000008        0x0 build/nanos/obj/sign_psbt.o
                                          0x8 (size before relaxing)
 .ARM.exidx.text.call_stream_merkle_leaf_element
                0x00000000d0000008        0x0 build/nanos/obj/stream_merkle_leaf_element.o
                                          0x8 (size before relaxing)
 .ARM.exidx.text.call_stream_merkleized_map_value
                0x00000000d0000008        0x0 build/nanos/obj/stream_merkleized_map_value.o
                                          0x8 (size before relaxing)
 .ARM.exidx.text.call_stream_preimage
                0x00000000d0000008        0x0 build/nanos/obj/stream_preimage.o
                                          0x8 (size before relaxing)
 .ARM.exidx.text.crypto_hash_update
                0x00000000d0000008        0x0 build/nanos/obj/stream_preimage.o
                                          0x8 (size before relaxing)
 .ARM.exidx.text.cx_hash
                0x00000000d0000008        0x0 build/nanos/obj/stream_preimage.o
                                          0x8 (size before relaxing)
 .ARM.exidx.text.get_api_level
                0x00000000d0000008        0x0 build/nanos/obj/syscalls.o
                                          0x8 (size before relaxing)
 .ARM.exidx.text.halt
                0x00000000d0000008        0x0 build/nanos/obj/syscalls.o
                                          0x8 (size before relaxing)
 .ARM.exidx.text.cx_ecdomain_parameters_length
                0x00000000d0000008        0x0 build/nanos/obj/syscalls.o
                                          0x8 (size before relaxing)
 .ARM.exidx.text.os_perso_isonboarded
                0x00000000d0000008        0x0 build/nanos/obj/syscalls.o
                                          0x8 (size before relaxing)
 .ARM.exidx.text.os_perso_derive_node_bip32
                0x00000000d0000008        0x0 build/nanos/obj/syscalls.o
                                          0x8 (size before relaxing)
 .ARM.exidx.text.os_perso_derive_node_with_seed_key
                0x00000000d0000008        0x0 build/nanos/obj/syscalls.o
                                          0x8 (size before relaxing)
 .ARM.exidx.text.os_perso_seed_cookie
                0x00000000d0000008        0x0 build/nanos/obj/syscalls.o
                                          0x8 (size before relaxing)
 .ARM.exidx.text.os_global_pin_is_validated
                0x00000000d0000008        0x0 build/nanos/obj/syscalls.o
                                          0x8 (size before relaxing)
 .ARM.exidx.text.os_ux
                0x00000000d0000008        0x0 build/nanos/obj/syscalls.o
                                          0x8 (size before relaxing)
 .ARM.exidx.text.os_lib_end
                0x00000000d0000008        0x0 build/nanos/obj/syscalls.o
                                          0x8 (size before relaxing)
 .ARM.exidx.text.os_flags
                0x00000000d0000008        0x0 build/nanos/obj/syscalls.o
                                          0x8 (size before relaxing)
 .ARM.exidx.text.os_registry_get_current_app_tag
                0x00000000d0000008        0x0 build/nanos/obj/syscalls.o
                                          0x8 (size before relaxing)
 .ARM.exidx.text.os_sched_exit
                0x00000000d0000008        0x0 build/nanos/obj/syscalls.o
                                          0x8 (size before relaxing)
 .ARM.exidx.text.io_seph_send
                0x00000000d0000008        0x0 build/nanos/obj/syscalls.o
                                          0x8 (size before relaxing)
 .ARM.exidx.text.io_seph_is_status_sent
                0x00000000d0000008        0x0 build/nanos/obj/syscalls.o
                                          0x8 (size before relaxing)
 .ARM.exidx.text.io_seph_recv
                0x00000000d0000008        0x0 build/nanos/obj/syscalls.o
                                          0x8 (size before relaxing)
 .ARM.exidx.text.try_context_get
                0x00000000d0000008        0x0 build/nanos/obj/syscalls.o
                                          0x8 (size before relaxing)
 .ARM.exidx.text.try_context_set
                0x00000000d0000008        0x0 build/nanos/obj/syscalls.o
                                          0x8 (size before relaxing)
 .ARM.exidx.text.os_sched_last_status
                0x00000000d0000008        0x0 build/nanos/obj/syscalls.o
                                          0x8 (size before relaxing)
 .ARM.exidx.text.update_hashes_with_map_value
                0x00000000d0000008        0x0 build/nanos/obj/update_hashes_with_map_value.o
                                          0x8 (size before relaxing)
 .ARM.exidx.text.cb_process_len
                0x00000000d0000008        0x0 build/nanos/obj/update_hashes_with_map_value.o
                                          0x8 (size before relaxing)
 .ARM.exidx.text.cb_process_data
                0x00000000d0000008        0x0 build/nanos/obj/update_hashes_with_map_value.o
                                          0x8 (size before relaxing)
 .ARM.exidx.text.crypto_hash_update
                0x00000000d0000008        0x0 build/nanos/obj/update_hashes_with_map_value.o
                                          0x8 (size before relaxing)
 .ARM.exidx.text.USBD_LL_Init
                0x00000000d0000008        0x0 build/nanos/obj/usbd_conf.o
                                          0x8 (size before relaxing)
 .ARM.exidx.text.USBD_LL_DeInit
                0x00000000d0000008        0x0 build/nanos/obj/usbd_conf.o
                                          0x8 (size before relaxing)
 .ARM.exidx.text.USBD_LL_Start
                0x00000000d0000008        0x0 build/nanos/obj/usbd_conf.o
                                          0x8 (size before relaxing)
 .ARM.exidx.text.USBD_LL_Stop
                0x00000000d0000008        0x0 build/nanos/obj/usbd_conf.o
                                          0x8 (size before relaxing)
 .ARM.exidx.text.USBD_LL_OpenEP
                0x00000000d0000008        0x0 build/nanos/obj/usbd_conf.o
                                          0x8 (size before relaxing)
 .ARM.exidx.text.USBD_LL_StallEP
                0x00000000d0000008        0x0 build/nanos/obj/usbd_conf.o
                                          0x8 (size before relaxing)
 .ARM.exidx.text.USBD_LL_ClearStallEP
                0x00000000d0000008        0x0 build/nanos/obj/usbd_conf.o
                                          0x8 (size before relaxing)
 .ARM.exidx.text.USBD_LL_IsStallEP
                0x00000000d0000008        0x0 build/nanos/obj/usbd_conf.o
                                          0x8 (size before relaxing)
 .ARM.exidx.text.USBD_LL_SetUSBAddress
                0x00000000d0000008        0x0 build/nanos/obj/usbd_conf.o
                                          0x8 (size before relaxing)
 .ARM.exidx.text.USBD_LL_Transmit
                0x00000000d0000008        0x0 build/nanos/obj/usbd_conf.o
                                          0x8 (size before relaxing)
 .ARM.exidx.text.USBD_LL_PrepareReceive
                0x00000000d0000008        0x0 build/nanos/obj/usbd_conf.o
                                          0x8 (size before relaxing)
 .ARM.exidx.text.USBD_Init
                0x00000000d0000008        0x0 build/nanos/obj/usbd_core.o
                                          0x8 (size before relaxing)
 .ARM.exidx.text.USBD_DeInit
                0x00000000d0000008        0x0 build/nanos/obj/usbd_core.o
                                          0x8 (size before relaxing)
 .ARM.exidx.text.USBD_RegisterClassForInterface
                0x00000000d0000008        0x0 build/nanos/obj/usbd_core.o
                                          0x8 (size before relaxing)
 .ARM.exidx.text.USBD_Start
                0x00000000d0000008        0x0 build/nanos/obj/usbd_core.o
                                          0x8 (size before relaxing)
 .ARM.exidx.text.USBD_SetClassConfig
                0x00000000d0000008        0x0 build/nanos/obj/usbd_core.o
                                          0x8 (size before relaxing)
 .ARM.exidx.text.USBD_ClrClassConfig
                0x00000000d0000008        0x0 build/nanos/obj/usbd_core.o
                                          0x8 (size before relaxing)
 .ARM.exidx.text.USBD_LL_SetupStage
                0x00000000d0000008        0x0 build/nanos/obj/usbd_core.o
                                          0x8 (size before relaxing)
 .ARM.exidx.text.USBD_LL_DataOutStage
                0x00000000d0000008        0x0 build/nanos/obj/usbd_core.o
                                          0x8 (size before relaxing)
 .ARM.exidx.text.USBD_LL_DataInStage
                0x00000000d0000008        0x0 build/nanos/obj/usbd_core.o
                                          0x8 (size before relaxing)
 .ARM.exidx.text.USBD_LL_Reset
                0x00000000d0000008        0x0 build/nanos/obj/usbd_core.o
                                          0x8 (size before relaxing)
 .ARM.exidx.text.USBD_LL_SetSpeed
                0x00000000d0000008        0x0 build/nanos/obj/usbd_core.o
                                          0x8 (size before relaxing)
 .ARM.exidx.text.USBD_LL_Suspend
                0x00000000d0000008        0x0 build/nanos/obj/usbd_core.o
                                          0x8 (size before relaxing)
 .ARM.exidx.text.USBD_LL_Resume
                0x00000000d0000008        0x0 build/nanos/obj/usbd_core.o
                                          0x8 (size before relaxing)
 .ARM.exidx.text.USBD_LL_SOF
                0x00000000d0000008        0x0 build/nanos/obj/usbd_core.o
                                          0x8 (size before relaxing)
 .ARM.exidx.text.usbd_is_valid_intf
                0x00000000d0000008        0x0 build/nanos/obj/usbd_ctlreq.o
                                          0x8 (size before relaxing)
 .ARM.exidx.text.USBD_StdDevReq
                0x00000000d0000008        0x0 build/nanos/obj/usbd_ctlreq.o
                                          0x8 (size before relaxing)
 .ARM.exidx.text.USBD_GetDescriptor
                0x00000000d0000008        0x0 build/nanos/obj/usbd_ctlreq.o
                                          0x8 (size before relaxing)
 .ARM.exidx.text.USBD_SetAddress
                0x00000000d0000008        0x0 build/nanos/obj/usbd_ctlreq.o
                                          0x8 (size before relaxing)
 .ARM.exidx.text.USBD_SetConfig
                0x00000000d0000008        0x0 build/nanos/obj/usbd_ctlreq.o
                                          0x8 (size before relaxing)
 .ARM.exidx.text.USBD_GetConfig
                0x00000000d0000008        0x0 build/nanos/obj/usbd_ctlreq.o
                                          0x8 (size before relaxing)
 .ARM.exidx.text.USBD_GetStatus
                0x00000000d0000008        0x0 build/nanos/obj/usbd_ctlreq.o
                                          0x8 (size before relaxing)
 .ARM.exidx.text.USBD_SetFeature
                0x00000000d0000008        0x0 build/nanos/obj/usbd_ctlreq.o
                                          0x8 (size before relaxing)
 .ARM.exidx.text.USBD_ClrFeature
                0x00000000d0000008        0x0 build/nanos/obj/usbd_ctlreq.o
                                          0x8 (size before relaxing)
 .ARM.exidx.text.USBD_StdItfReq
                0x00000000d0000008        0x0 build/nanos/obj/usbd_ctlreq.o
                                          0x8 (size before relaxing)
 .ARM.exidx.text.USBD_StdEPReq
                0x00000000d0000008        0x0 build/nanos/obj/usbd_ctlreq.o
                                          0x8 (size before relaxing)
 .ARM.exidx.text.USBD_ParseSetupRequest
                0x00000000d0000008        0x0 build/nanos/obj/usbd_ctlreq.o
                                          0x8 (size before relaxing)
 .ARM.exidx.text.USBD_CtlStall
                0x00000000d0000008        0x0 build/nanos/obj/usbd_ctlreq.o
                                          0x8 (size before relaxing)
 .ARM.exidx.text.USBD_HID_Setup
                0x00000000d0000008        0x0 build/nanos/obj/usbd_hid.o
                                          0x8 (size before relaxing)
 .ARM.exidx.text.USBD_HID_Init
                0x00000000d0000008        0x0 build/nanos/obj/usbd_hid.o
                                          0x8 (size before relaxing)
 .ARM.exidx.text.USBD_HID_DeInit
                0x00000000d0000008        0x0 build/nanos/obj/usbd_hid.o
                                          0x8 (size before relaxing)
 .ARM.exidx.text.USBD_HID_GetHidDescriptor_impl
                0x00000000d0000008        0x0 build/nanos/obj/usbd_impl.o
                                          0x8 (size before relaxing)
 .ARM.exidx.text.USBD_HID_GetReportDescriptor_impl
                0x00000000d0000008        0x0 build/nanos/obj/usbd_impl.o
                                          0x8 (size before relaxing)
 .ARM.exidx.text.USBD_HID_DataIn_impl
                0x00000000d0000008        0x0 build/nanos/obj/usbd_impl.o
                                          0x8 (size before relaxing)
 .ARM.exidx.text.USBD_HID_DataOut_impl
                0x00000000d0000008        0x0 build/nanos/obj/usbd_impl.o
                                          0x8 (size before relaxing)
 .ARM.exidx.text.USBD_WEBUSB_Init
                0x00000000d0000008        0x0 build/nanos/obj/usbd_impl.o
                                          0x8 (size before relaxing)
 .ARM.exidx.text.USBD_WEBUSB_DeInit
                0x00000000d0000008        0x0 build/nanos/obj/usbd_impl.o
                                          0x8 (size before relaxing)
 .ARM.exidx.text.USBD_WEBUSB_Setup
                0x00000000d0000008        0x0 build/nanos/obj/usbd_impl.o
                                          0x8 (size before relaxing)
 .ARM.exidx.text.USBD_WEBUSB_DataIn
                0x00000000d0000008        0x0 build/nanos/obj/usbd_impl.o
                                          0x8 (size before relaxing)
 .ARM.exidx.text.USBD_WEBUSB_DataOut
                0x00000000d0000008        0x0 build/nanos/obj/usbd_impl.o
                                          0x8 (size before relaxing)
 .ARM.exidx.text.USBD_DeviceDescriptor
                0x00000000d0000008        0x0 build/nanos/obj/usbd_impl.o
                                          0x8 (size before relaxing)
 .ARM.exidx.text.USBD_LangIDStrDescriptor
                0x00000000d0000008        0x0 build/nanos/obj/usbd_impl.o
                                          0x8 (size before relaxing)
 .ARM.exidx.text.USBD_ManufacturerStrDescriptor
                0x00000000d0000008        0x0 build/nanos/obj/usbd_impl.o
                                          0x8 (size before relaxing)
 .ARM.exidx.text.USBD_ProductStrDescriptor
                0x00000000d0000008        0x0 build/nanos/obj/usbd_impl.o
                                          0x8 (size before relaxing)
 .ARM.exidx.text.USBD_SerialStrDescriptor
                0x00000000d0000008        0x0 build/nanos/obj/usbd_impl.o
                                          0x8 (size before relaxing)
 .ARM.exidx.text.USBD_ConfigStrDescriptor
                0x00000000d0000008        0x0 build/nanos/obj/usbd_impl.o
                                          0x8 (size before relaxing)
 .ARM.exidx.text.USBD_InterfaceStrDescriptor
                0x00000000d0000008        0x0 build/nanos/obj/usbd_impl.o
                                          0x8 (size before relaxing)
 .ARM.exidx.text.USBD_BOSDescriptor
                0x00000000d0000008        0x0 build/nanos/obj/usbd_impl.o
                                          0x8 (size before relaxing)
 .ARM.exidx.text.USBD_CtlError
                0x00000000d0000008        0x0 build/nanos/obj/usbd_impl.o
                                          0x8 (size before relaxing)
 .ARM.exidx.text.USB_power
                0x00000000d0000008        0x0 build/nanos/obj/usbd_impl.o
                                          0x8 (size before relaxing)
 .ARM.exidx.text.USBD_GetCfgDesc_impl
                0x00000000d0000008        0x0 build/nanos/obj/usbd_impl.o
                                          0x8 (size before relaxing)
 .ARM.exidx.text.USBD_GetDeviceQualifierDesc_impl
                0x00000000d0000008        0x0 build/nanos/obj/usbd_impl.o
                                          0x8 (size before relaxing)
 .ARM.exidx.text.USBD_CtlSendData
                0x00000000d0000008        0x0 build/nanos/obj/usbd_ioreq.o
                                          0x8 (size before relaxing)
 .ARM.exidx.text.USBD_CtlContinueSendData
                0x00000000d0000008        0x0 build/nanos/obj/usbd_ioreq.o
                                          0x8 (size before relaxing)
 .ARM.exidx.text.USBD_CtlContinueRx
                0x00000000d0000008        0x0 build/nanos/obj/usbd_ioreq.o
                                          0x8 (size before relaxing)
 .ARM.exidx.text.USBD_CtlSendStatus
                0x00000000d0000008        0x0 build/nanos/obj/usbd_ioreq.o
                                          0x8 (size before relaxing)
 .ARM.exidx.text.USBD_CtlReceiveStatus
                0x00000000d0000008        0x0 build/nanos/obj/usbd_ioreq.o
                                          0x8 (size before relaxing)
 .ARM.exidx.text.ux_flow_is_first
                0x00000000d0000008        0x0 build/nanos/obj/ux_flow_engine.o
                                          0x8 (size before relaxing)
 .ARM.exidx.text.ux_flow_check_valid
                0x00000000d0000008        0x0 build/nanos/obj/ux_flow_engine.o
                                          0x8 (size before relaxing)
 .ARM.exidx.text.ux_flow_is_last
                0x00000000d0000008        0x0 build/nanos/obj/ux_flow_engine.o
                                          0x8 (size before relaxing)
 .ARM.exidx.text.ux_flow_direction
                0x00000000d0000008        0x0 build/nanos/obj/ux_flow_engine.o
                                          0x8 (size before relaxing)
 .ARM.exidx.text.ux_flow_next_internal
                0x00000000d0000008        0x0 build/nanos/obj/ux_flow_engine.o
                                          0x8 (size before relaxing)
 .ARM.exidx.text.ux_flow_next
                0x00000000d0000008        0x0 build/nanos/obj/ux_flow_engine.o
                                          0x8 (size before relaxing)
 .ARM.exidx.text.ux_flow_prev
                0x00000000d0000008        0x0 build/nanos/obj/ux_flow_engine.o
                                          0x8 (size before relaxing)
 .ARM.exidx.text.ux_flow_engine_init_step
                0x00000000d0000008        0x0 build/nanos/obj/ux_flow_engine.o
                                          0x8 (size before relaxing)
 .ARM.exidx.text.ux_flow_validate
                0x00000000d0000008        0x0 build/nanos/obj/ux_flow_engine.o
                                          0x8 (size before relaxing)
 .ARM.exidx.text.ux_flow_init
                0x00000000d0000008        0x0 build/nanos/obj/ux_flow_engine.o
                                          0x8 (size before relaxing)
 .ARM.exidx.text.ux_flow_button_callback
                0x00000000d0000008        0x0 build/nanos/obj/ux_flow_engine.o
                                          0x8 (size before relaxing)
 .ARM.exidx.text.ux_stack_get_step_params
                0x00000000d0000008        0x0 build/nanos/obj/ux_flow_engine.o
                                          0x8 (size before relaxing)
 .ARM.exidx.text.ux_stack_get_current_step_params
                0x00000000d0000008        0x0 build/nanos/obj/ux_flow_engine.o
                                          0x8 (size before relaxing)
 .ARM.exidx.text.ux_layout_bb_init_common
                0x00000000d0000008        0x0 build/nanos/obj/ux_layout_bb.o
                                          0x8 (size before relaxing)
 .ARM.exidx.text.ux_layout_bn_prepro
                0x00000000d0000008        0x0 build/nanos/obj/ux_layout_bn.o
                                          0x8 (size before relaxing)
 .ARM.exidx.text.ux_layout_bn_init
                0x00000000d0000008        0x0 build/nanos/obj/ux_layout_bn.o
                                          0x8 (size before relaxing)
 .ARM.exidx.text.ux_layout_nn_prepro
                0x00000000d0000008        0x0 build/nanos/obj/ux_layout_nn.o
                                          0x8 (size before relaxing)
 .ARM.exidx.text.ux_layout_nn_init
                0x00000000d0000008        0x0 build/nanos/obj/ux_layout_nn.o
                                          0x8 (size before relaxing)
 .ARM.exidx.text.ux_layout_paging_redisplay_common
                0x00000000d0000008        0x0 build/nanos/obj/ux_layout_paging.o
                                          0x8 (size before relaxing)
 .ARM.exidx.text.ux_layout_paging_redisplay_by_addr
                0x00000000d0000008        0x0 build/nanos/obj/ux_layout_paging.o
                                          0x8 (size before relaxing)
 .ARM.exidx.text.ux_layout_paging_button_callback_by_addr
                0x00000000d0000008        0x0 build/nanos/obj/ux_layout_paging.o
                                          0x8 (size before relaxing)
 .ARM.exidx.text.ux_layout_paging_prepro_by_addr
                0x00000000d0000008        0x0 build/nanos/obj/ux_layout_paging.o
                                          0x8 (size before relaxing)
 .ARM.exidx.text.ux_layout_paging_init_common
                0x00000000d0000008        0x0 build/nanos/obj/ux_layout_paging.o
                                          0x8 (size before relaxing)
 .ARM.exidx.text.ux_layout_paging_init
                0x00000000d0000008        0x0 build/nanos/obj/ux_layout_paging.o
                                          0x8 (size before relaxing)
 .ARM.exidx.text.ux_layout_paging_prepro_common
                0x00000000d0000008        0x0 build/nanos/obj/ux_layout_paging.o
                                          0x8 (size before relaxing)
 .ARM.exidx.text.ux_layout_paging_button_callback_common
                0x00000000d0000008        0x0 build/nanos/obj/ux_layout_paging.o
                                          0x8 (size before relaxing)
 .ARM.exidx.text.ux_layout_paging_compute
                0x00000000d0000008        0x0 build/nanos/obj/ux_layout_paging_compute.o
                                          0x8 (size before relaxing)
 .ARM.exidx.text.is_word_delim
                0x00000000d0000008        0x0 build/nanos/obj/ux_layout_paging_compute.o
                                          0x8 (size before relaxing)
 .ARM.exidx.text.ux_layout_pb_prepro
                0x00000000d0000008        0x0 build/nanos/obj/ux_layout_pb.o
                                          0x8 (size before relaxing)
 .ARM.exidx.text.ux_layout_pb_init
                0x00000000d0000008        0x0 build/nanos/obj/ux_layout_pb.o
                                          0x8 (size before relaxing)
 .ARM.exidx.text.ux_layout_pbb_prepro
                0x00000000d0000008        0x0 build/nanos/obj/ux_layout_pbb.o
                                          0x8 (size before relaxing)
 .ARM.exidx.text.ux_layout_pbb_init_common
                0x00000000d0000008        0x0 build/nanos/obj/ux_layout_pbb.o
                                          0x8 (size before relaxing)
 .ARM.exidx.text.ux_layout_pbb_init
                0x00000000d0000008        0x0 build/nanos/obj/ux_layout_pbb.o
                                          0x8 (size before relaxing)
 .ARM.exidx.text.ux_layout_pn_prepro
                0x00000000d0000008        0x0 build/nanos/obj/ux_layout_pn.o
                                          0x8 (size before relaxing)
 .ARM.exidx.text.ux_layout_pn_init
                0x00000000d0000008        0x0 build/nanos/obj/ux_layout_pn.o
                                          0x8 (size before relaxing)
 .ARM.exidx.text.ux_layout_pnn_prepro
                0x00000000d0000008        0x0 build/nanos/obj/ux_layout_pnn.o
                                          0x8 (size before relaxing)
 .ARM.exidx.text.ux_layout_pnn_init
                0x00000000d0000008        0x0 build/nanos/obj/ux_layout_pnn.o
                                          0x8 (size before relaxing)
 .ARM.exidx.text.ux_layout_strings_prepro
                0x00000000d0000008        0x0 build/nanos/obj/ux_layout_utils.o
                                          0x8 (size before relaxing)
 .ARM.exidx.text.ux_stack_push
                0x00000000d0000008        0x0 build/nanos/obj/ux_stack.o
                                          0x8 (size before relaxing)
 .ARM.exidx.text.ux_stack_display
                0x00000000d0000008        0x0 build/nanos/obj/ux_stack.o
                                          0x8 (size before relaxing)
 .ARM.exidx.text.ux_stack_init
                0x00000000d0000008        0x0 build/nanos/obj/ux_stack.o
                                          0x8 (size before relaxing)
 .ARM.exidx.text.ux_stack_al_display_next_element
                0x00000000d0000008        0x0 build/nanos/obj/ux_stack.o
                                          0x8 (size before relaxing)
 .ARM.exidx.text.varint_size
                0x00000000d0000008        0x0 build/nanos/obj/varint.o
                                          0x8 (size before relaxing)
 .ARM.exidx.text.varint_read
                0x00000000d0000008        0x0 build/nanos/obj/varint.o
                                          0x8 (size before relaxing)
 .ARM.exidx.text.varint_write
                0x00000000d0000008        0x0 build/nanos/obj/varint.o
                                          0x8 (size before relaxing)
 .ARM.exidx.text.read_wallet_policy_header
                0x00000000d0000008        0x0 build/nanos/obj/wallet.o
                                          0x8 (size before relaxing)
 .ARM.exidx.text.parse_policy_map_key_info
                0x00000000d0000008        0x0 build/nanos/obj/wallet.o
                                          0x8 (size before relaxing)
 .ARM.exidx.text.consume_character
                0x00000000d0000008        0x0 build/nanos/obj/wallet.o
                                          0x8 (size before relaxing)
 .ARM.exidx.text.parse_descriptor_template
                0x00000000d0000008        0x0 build/nanos/obj/wallet.o
                                          0x8 (size before relaxing)
 .ARM.exidx.text.parse_script
                0x00000000d0000008        0x0 build/nanos/obj/wallet.o
                                          0x8 (size before relaxing)
 .ARM.exidx.text.compute_miniscript_policy_ext_info
                0x00000000d0000008        0x0 build/nanos/obj/wallet.o
                                          0x8 (size before relaxing)
 .ARM.exidx.text.sumcheck
                0x00000000d0000008        0x0 build/nanos/obj/wallet.o
                                          0x8 (size before relaxing)
 .ARM.exidx.text.get_policy_wallet_id
                0x00000000d0000008        0x0 build/nanos/obj/wallet.o
                                          0x8 (size before relaxing)
 .ARM.exidx.text.crypto_hash_update_u8
                0x00000000d0000008        0x0 build/nanos/obj/wallet.o
                                          0x8 (size before relaxing)
 .ARM.exidx.text.crypto_hash_update
                0x00000000d0000008        0x0 build/nanos/obj/wallet.o
                                          0x8 (size before relaxing)
 .ARM.exidx.text.crypto_hash_update_varint
                0x00000000d0000008        0x0 build/nanos/obj/wallet.o
                                          0x8 (size before relaxing)
 .ARM.exidx.text.parse_unsigned_decimal
                0x00000000d0000008        0x0 build/nanos/obj/wallet.o
                                          0x8 (size before relaxing)
 .ARM.exidx.text.buffer_read_hex_hash
                0x00000000d0000008        0x0 build/nanos/obj/wallet.o
                                          0x8 (size before relaxing)
 .ARM.exidx.text.parse_child_scripts
                0x00000000d0000008        0x0 build/nanos/obj/wallet.o
                                          0x8 (size before relaxing)
 .ARM.exidx.text.parse_placeholder
                0x00000000d0000008        0x0 build/nanos/obj/wallet.o
                                          0x8 (size before relaxing)
 .ARM.exidx.text.parse_tree
                0x00000000d0000008        0x0 build/nanos/obj/wallet.o
                                          0x8 (size before relaxing)
 .ARM.exidx.text.consume_characters
                0x00000000d0000008        0x0 build/nanos/obj/wallet.o
                                          0x8 (size before relaxing)
 .ARM.exidx.text.cx_hash
                0x00000000d0000008        0x0 build/nanos/obj/wallet.o
                                          0x8 (size before relaxing)
 .ARM.exidx.text.write_u16_be
                0x00000000d0000008        0x0 build/nanos/obj/write.o
                                          0x8 (size before relaxing)
 .ARM.exidx.text.write_u32_be
                0x00000000d0000008        0x0 build/nanos/obj/write.o
                                          0x8 (size before relaxing)
 .ARM.exidx.text.write_u16_le
                0x00000000d0000008        0x0 build/nanos/obj/write.o
                                          0x8 (size before relaxing)
 .ARM.exidx.text.write_u32_le
                0x00000000d0000008        0x0 build/nanos/obj/write.o
                                          0x8 (size before relaxing)
 .ARM.exidx.text.write_u64_le
                0x00000000d0000008        0x0 build/nanos/obj/write.o
                                          0x8 (size before relaxing)

.rel.dyn        0x00000000d0000008        0x0
 .rel.iplt      0x00000000d0000008        0x0 build/nanos/obj/apdu_parser.o

/DISCARD/
 *(.ARM.extab)
 *(.gnu.hash)
 *(.hash)
 *(.dynsym)
 *(.dynstr)

.stab
 *(.stab)

.stabstr
 *(.stabstr)

.stab.excl
 *(.stab.excl)

.stab.exclstr
 *(.stab.exclstr)

.stab.index
 *(.stab.index)

.stab.indexstr
 *(.stab.indexstr)

.comment        0x0000000000000000       0x37
 *(.comment)
 .comment       0x0000000000000000       0x1c build/nanos/obj/apdu_parser.o
                                         0x1d (size before relaxing)
 .comment       0x000000000000001c       0x1d build/nanos/obj/base58.o
 .comment       0x000000000000001c       0x1d build/nanos/obj/bip32.o
 .comment       0x000000000000001c       0x1d build/nanos/obj/bip32_path.o
 .comment       0x000000000000001c       0x1d build/nanos/obj/btchip_bcd.o
 .comment       0x000000000000001c       0x1d build/nanos/obj/buffer.o
 .comment       0x000000000000001c       0x1d build/nanos/obj/check_merkle_tree_sorted.o
 .comment       0x000000000000001c       0x1d build/nanos/obj/compare_wallet_script_at_path.o
 .comment       0x000000000000001c       0x1d build/nanos/obj/crypto.o
 .comment       0x000000000000001c       0x1d build/nanos/obj/cxram_stash.o
 .comment       0x000000000000001c       0x1d build/nanos/obj/dispatcher.o
 .comment       0x000000000000001c       0x1d build/nanos/obj/display.o
 .comment       0x000000000000001c       0x1d build/nanos/obj/display_utils.o
 .comment       0x000000000000001c       0x1d build/nanos/obj/extract_bip32_derivation.o
 .comment       0x000000000000001c       0x1d build/nanos/obj/get_extended_pubkey.o
 .comment       0x000000000000001c       0x1d build/nanos/obj/get_master_fingerprint.o
 .comment       0x000000000000001c       0x1d build/nanos/obj/get_merkle_leaf_element.o
 .comment       0x000000000000001c       0x1d build/nanos/obj/get_merkle_leaf_hash.o
 .comment       0x000000000000001c       0x1d build/nanos/obj/get_merkle_leaf_index.o
 .comment       0x000000000000001c       0x1d build/nanos/obj/get_merkle_preimage.o
 .comment       0x000000000000001c       0x1d build/nanos/obj/get_merkleized_map.o
 .comment       0x000000000000001c       0x1d build/nanos/obj/get_merkleized_map_value.o
 .comment       0x000000000000001c       0x1d build/nanos/obj/get_merkleized_map_value_hash.o
 .comment       0x000000000000001c       0x1d build/nanos/obj/get_preimage.o
 .comment       0x000000000000001c       0x1d build/nanos/obj/get_wallet_address.o
 .comment       0x000000000000001c       0x1d build/nanos/obj/glyphs.o
 .comment       0x000000000000001c       0x1d build/nanos/obj/handle_check_address.o
 .comment       0x000000000000001c       0x1d build/nanos/obj/handle_get_printable_amount.o
 .comment       0x000000000000001c       0x1d build/nanos/obj/handle_swap_sign_transaction.o
 .comment       0x000000000000001c       0x1d build/nanos/obj/io.o
 .comment       0x000000000000001c       0x1d build/nanos/obj/main.o
 .comment       0x000000000000001c       0x1d build/nanos/obj/menu.o
 .comment       0x000000000000001c       0x1d build/nanos/obj/merkle.o
 .comment       0x000000000000001c       0x1d build/nanos/obj/os.o
 .comment       0x000000000000001c       0x1d build/nanos/obj/os_io_seproxyhal.o
 .comment       0x000000000000001c       0x1d build/nanos/obj/os_io_usb.o
 .comment       0x000000000000001c       0x1d build/nanos/obj/os_printf.o
 .comment       0x000000000000001c       0x1d build/nanos/obj/parser.o
 .comment       0x000000000000001c       0x1d build/nanos/obj/pic.o
 .comment       0x000000000000001c       0x1d build/nanos/obj/policy.o
 .comment       0x000000000000001c       0x1d build/nanos/obj/psbt_parse_rawtx.o
 .comment       0x000000000000001c       0x1d build/nanos/obj/read.o
 .comment       0x000000000000001c       0x1d build/nanos/obj/register_wallet.o
 .comment       0x000000000000001c       0x1d build/nanos/obj/script.o
 .comment       0x000000000000001c       0x1d build/nanos/obj/segwit_addr.o
 .comment       0x000000000000001c       0x1d build/nanos/obj/sign_message.o
 .comment       0x000000000000001c       0x1d build/nanos/obj/sign_psbt.o
 .comment       0x000000000000001c       0x1d build/nanos/obj/stream_merkle_leaf_element.o
 .comment       0x000000000000001c       0x1d build/nanos/obj/stream_merkleized_map_value.o
 .comment       0x000000000000001c       0x1d build/nanos/obj/stream_preimage.o
 .comment       0x000000000000001c       0x1d build/nanos/obj/swap_globals.o
 .comment       0x000000000000001c       0x1d build/nanos/obj/syscalls.o
 .comment       0x000000000000001c       0x1d build/nanos/obj/update_hashes_with_map_value.o
 .comment       0x000000000000001c       0x1d build/nanos/obj/usbd_conf.o
 .comment       0x000000000000001c       0x1d build/nanos/obj/usbd_core.o
 .comment       0x000000000000001c       0x1d build/nanos/obj/usbd_ctlreq.o
 .comment       0x000000000000001c       0x1d build/nanos/obj/usbd_hid.o
 .comment       0x000000000000001c       0x1d build/nanos/obj/usbd_impl.o
 .comment       0x000000000000001c       0x1d build/nanos/obj/usbd_ioreq.o
 .comment       0x000000000000001c       0x1d build/nanos/obj/ux_flow_engine.o
 .comment       0x000000000000001c       0x1d build/nanos/obj/ux_layout_bb.o
 .comment       0x000000000000001c       0x1d build/nanos/obj/ux_layout_bn.o
 .comment       0x000000000000001c       0x1d build/nanos/obj/ux_layout_nn.o
 .comment       0x000000000000001c       0x1d build/nanos/obj/ux_layout_paging.o
 .comment       0x000000000000001c       0x1d build/nanos/obj/ux_layout_paging_compute.o
 .comment       0x000000000000001c       0x1d build/nanos/obj/ux_layout_pb.o
 .comment       0x000000000000001c       0x1d build/nanos/obj/ux_layout_pbb.o
 .comment       0x000000000000001c       0x1d build/nanos/obj/ux_layout_pn.o
 .comment       0x000000000000001c       0x1d build/nanos/obj/ux_layout_pnn.o
 .comment       0x000000000000001c       0x1d build/nanos/obj/ux_layout_utils.o
 .comment       0x000000000000001c       0x1d build/nanos/obj/ux_stack.o
 .comment       0x000000000000001c       0x1d build/nanos/obj/varint.o
 .comment       0x000000000000001c       0x1d build/nanos/obj/wallet.o
 .comment       0x000000000000001c       0x1d build/nanos/obj/write.o
 .comment       0x000000000000001c       0x1b /usr/lib/gcc/arm-none-eabi/10.3.0/thumb/v6-m/nofp/libgcc.a(_muldi3.o)
                                         0x1c (size before relaxing)
 .comment       0x0000000000000037       0x1c /usr/lib/gcc/arm-none-eabi/10.3.0/../../../../arm-none-eabi/lib/thumb/v6-m/nofp/libc_nano.a(lib_a-aeabi_memclr.o)
 .comment       0x0000000000000037       0x1c /usr/lib/gcc/arm-none-eabi/10.3.0/../../../../arm-none-eabi/lib/thumb/v6-m/nofp/libc_nano.a(lib_a-aeabi_memcpy.o)
 .comment       0x0000000000000037       0x1c /usr/lib/gcc/arm-none-eabi/10.3.0/../../../../arm-none-eabi/lib/thumb/v6-m/nofp/libc_nano.a(lib_a-aeabi_memmove.o)
 .comment       0x0000000000000037       0x1c /usr/lib/gcc/arm-none-eabi/10.3.0/../../../../arm-none-eabi/lib/thumb/v6-m/nofp/libc_nano.a(lib_a-aeabi_memset.o)
 .comment       0x0000000000000037       0x1c /usr/lib/gcc/arm-none-eabi/10.3.0/../../../../arm-none-eabi/lib/thumb/v6-m/nofp/libc_nano.a(lib_a-explicit_bzero.o)
 .comment       0x0000000000000037       0x1c /usr/lib/gcc/arm-none-eabi/10.3.0/../../../../arm-none-eabi/lib/thumb/v6-m/nofp/libc_nano.a(lib_a-memcmp.o)
 .comment       0x0000000000000037       0x1c /usr/lib/gcc/arm-none-eabi/10.3.0/../../../../arm-none-eabi/lib/thumb/v6-m/nofp/libc_nano.a(lib_a-memcpy-stub.o)
 .comment       0x0000000000000037       0x1c /usr/lib/gcc/arm-none-eabi/10.3.0/../../../../arm-none-eabi/lib/thumb/v6-m/nofp/libc_nano.a(lib_a-memmove.o)
 .comment       0x0000000000000037       0x1c /usr/lib/gcc/arm-none-eabi/10.3.0/../../../../arm-none-eabi/lib/thumb/v6-m/nofp/libc_nano.a(lib_a-memset.o)
 .comment       0x0000000000000037       0x1c /usr/lib/gcc/arm-none-eabi/10.3.0/../../../../arm-none-eabi/lib/thumb/v6-m/nofp/libc_nano.a(lib_a-strcpy.o)
 .comment       0x0000000000000037       0x1c /usr/lib/gcc/arm-none-eabi/10.3.0/../../../../arm-none-eabi/lib/thumb/v6-m/nofp/libc_nano.a(lib_a-strlen-stub.o)
 .comment       0x0000000000000037       0x1c /usr/lib/gcc/arm-none-eabi/10.3.0/../../../../arm-none-eabi/lib/thumb/v6-m/nofp/libc_nano.a(lib_a-strncmp.o)
 .comment       0x0000000000000037       0x1c /usr/lib/gcc/arm-none-eabi/10.3.0/../../../../arm-none-eabi/lib/thumb/v6-m/nofp/libc_nano.a(lib_a-strncpy.o)
 .comment       0x0000000000000037       0x1c /usr/lib/gcc/arm-none-eabi/10.3.0/../../../../arm-none-eabi/lib/thumb/v6-m/nofp/libc_nano.a(lib_a-bzero.o)

.note.GNU-stack
                0x0000000000000000        0x0
 .note.GNU-stack
                0x0000000000000000        0x0 build/nanos/obj/apdu_parser.o
 .note.GNU-stack
                0x0000000000000000        0x0 build/nanos/obj/base58.o
 .note.GNU-stack
                0x0000000000000000        0x0 build/nanos/obj/bip32.o
 .note.GNU-stack
                0x0000000000000000        0x0 build/nanos/obj/bip32_path.o
 .note.GNU-stack
                0x0000000000000000        0x0 build/nanos/obj/btchip_bcd.o
 .note.GNU-stack
                0x0000000000000000        0x0 build/nanos/obj/buffer.o
 .note.GNU-stack
                0x0000000000000000        0x0 build/nanos/obj/check_merkle_tree_sorted.o
 .note.GNU-stack
                0x0000000000000000        0x0 build/nanos/obj/compare_wallet_script_at_path.o
 .note.GNU-stack
                0x0000000000000000        0x0 build/nanos/obj/crypto.o
 .note.GNU-stack
                0x0000000000000000        0x0 build/nanos/obj/cxram_stash.o
 .note.GNU-stack
                0x0000000000000000        0x0 build/nanos/obj/dispatcher.o
 .note.GNU-stack
                0x0000000000000000        0x0 build/nanos/obj/display.o
 .note.GNU-stack
                0x0000000000000000        0x0 build/nanos/obj/display_utils.o
 .note.GNU-stack
                0x0000000000000000        0x0 build/nanos/obj/extract_bip32_derivation.o
 .note.GNU-stack
                0x0000000000000000        0x0 build/nanos/obj/get_extended_pubkey.o
 .note.GNU-stack
                0x0000000000000000        0x0 build/nanos/obj/get_master_fingerprint.o
 .note.GNU-stack
                0x0000000000000000        0x0 build/nanos/obj/get_merkle_leaf_element.o
 .note.GNU-stack
                0x0000000000000000        0x0 build/nanos/obj/get_merkle_leaf_hash.o
 .note.GNU-stack
                0x0000000000000000        0x0 build/nanos/obj/get_merkle_leaf_index.o
 .note.GNU-stack
                0x0000000000000000        0x0 build/nanos/obj/get_merkle_preimage.o
 .note.GNU-stack
                0x0000000000000000        0x0 build/nanos/obj/get_merkleized_map.o
 .note.GNU-stack
                0x0000000000000000        0x0 build/nanos/obj/get_merkleized_map_value.o
 .note.GNU-stack
                0x0000000000000000        0x0 build/nanos/obj/get_merkleized_map_value_hash.o
 .note.GNU-stack
                0x0000000000000000        0x0 build/nanos/obj/get_preimage.o
 .note.GNU-stack
                0x0000000000000000        0x0 build/nanos/obj/get_wallet_address.o
 .note.GNU-stack
                0x0000000000000000        0x0 build/nanos/obj/glyphs.o
 .note.GNU-stack
                0x0000000000000000        0x0 build/nanos/obj/handle_check_address.o
 .note.GNU-stack
                0x0000000000000000        0x0 build/nanos/obj/handle_get_printable_amount.o
 .note.GNU-stack
                0x0000000000000000        0x0 build/nanos/obj/handle_swap_sign_transaction.o
 .note.GNU-stack
                0x0000000000000000        0x0 build/nanos/obj/io.o
 .note.GNU-stack
                0x0000000000000000        0x0 build/nanos/obj/main.o
 .note.GNU-stack
                0x0000000000000000        0x0 build/nanos/obj/menu.o
 .note.GNU-stack
                0x0000000000000000        0x0 build/nanos/obj/merkle.o
 .note.GNU-stack
                0x0000000000000000        0x0 build/nanos/obj/os.o
 .note.GNU-stack
                0x0000000000000000        0x0 build/nanos/obj/os_io_seproxyhal.o
 .note.GNU-stack
                0x0000000000000000        0x0 build/nanos/obj/os_io_usb.o
 .note.GNU-stack
                0x0000000000000000        0x0 build/nanos/obj/os_printf.o
 .note.GNU-stack
                0x0000000000000000        0x0 build/nanos/obj/parser.o
 .note.GNU-stack
                0x0000000000000000        0x0 build/nanos/obj/pic.o
 .note.GNU-stack
                0x0000000000000000        0x0 build/nanos/obj/policy.o
 .note.GNU-stack
                0x0000000000000000        0x0 build/nanos/obj/psbt_parse_rawtx.o
 .note.GNU-stack
                0x0000000000000000        0x0 build/nanos/obj/read.o
 .note.GNU-stack
                0x0000000000000000        0x0 build/nanos/obj/register_wallet.o
 .note.GNU-stack
                0x0000000000000000        0x0 build/nanos/obj/script.o
 .note.GNU-stack
                0x0000000000000000        0x0 build/nanos/obj/segwit_addr.o
 .note.GNU-stack
                0x0000000000000000        0x0 build/nanos/obj/sign_message.o
 .note.GNU-stack
                0x0000000000000000        0x0 build/nanos/obj/sign_psbt.o
 .note.GNU-stack
                0x0000000000000000        0x0 build/nanos/obj/stream_merkle_leaf_element.o
 .note.GNU-stack
                0x0000000000000000        0x0 build/nanos/obj/stream_merkleized_map_value.o
 .note.GNU-stack
                0x0000000000000000        0x0 build/nanos/obj/stream_preimage.o
 .note.GNU-stack
                0x0000000000000000        0x0 build/nanos/obj/swap_globals.o
 .note.GNU-stack
                0x0000000000000000        0x0 build/nanos/obj/syscalls.o
 .note.GNU-stack
                0x0000000000000000        0x0 build/nanos/obj/update_hashes_with_map_value.o
 .note.GNU-stack
                0x0000000000000000        0x0 build/nanos/obj/usbd_conf.o
 .note.GNU-stack
                0x0000000000000000        0x0 build/nanos/obj/usbd_core.o
 .note.GNU-stack
                0x0000000000000000        0x0 build/nanos/obj/usbd_ctlreq.o
 .note.GNU-stack
                0x0000000000000000        0x0 build/nanos/obj/usbd_hid.o
 .note.GNU-stack
                0x0000000000000000        0x0 build/nanos/obj/usbd_impl.o
 .note.GNU-stack
                0x0000000000000000        0x0 build/nanos/obj/usbd_ioreq.o
 .note.GNU-stack
                0x0000000000000000        0x0 build/nanos/obj/ux_flow_engine.o
 .note.GNU-stack
                0x0000000000000000        0x0 build/nanos/obj/ux_layout_bb.o
 .note.GNU-stack
                0x0000000000000000        0x0 build/nanos/obj/ux_layout_bn.o
 .note.GNU-stack
                0x0000000000000000        0x0 build/nanos/obj/ux_layout_nn.o
 .note.GNU-stack
                0x0000000000000000        0x0 build/nanos/obj/ux_layout_paging.o
 .note.GNU-stack
                0x0000000000000000        0x0 build/nanos/obj/ux_layout_paging_compute.o
 .note.GNU-stack
                0x0000000000000000        0x0 build/nanos/obj/ux_layout_pb.o
 .note.GNU-stack
                0x0000000000000000        0x0 build/nanos/obj/ux_layout_pbb.o
 .note.GNU-stack
                0x0000000000000000        0x0 build/nanos/obj/ux_layout_pn.o
 .note.GNU-stack
                0x0000000000000000        0x0 build/nanos/obj/ux_layout_pnn.o
 .note.GNU-stack
                0x0000000000000000        0x0 build/nanos/obj/ux_layout_utils.o
 .note.GNU-stack
                0x0000000000000000        0x0 build/nanos/obj/ux_stack.o
 .note.GNU-stack
                0x0000000000000000        0x0 build/nanos/obj/varint.o
 .note.GNU-stack
                0x0000000000000000        0x0 build/nanos/obj/wallet.o
 .note.GNU-stack
                0x0000000000000000        0x0 build/nanos/obj/write.o

.ARM.attributes
                0x0000000000000000       0x37
 .ARM.attributes
                0x0000000000000000       0x47 build/nanos/obj/apdu_parser.o
 .ARM.attributes
                0x0000000000000047       0x47 build/nanos/obj/base58.o
 .ARM.attributes
                0x000000000000008e       0x47 build/nanos/obj/bip32.o
 .ARM.attributes
                0x00000000000000d5       0x47 build/nanos/obj/bip32_path.o
 .ARM.attributes
                0x000000000000011c       0x47 build/nanos/obj/btchip_bcd.o
 .ARM.attributes
                0x0000000000000163       0x47 build/nanos/obj/buffer.o
 .ARM.attributes
                0x00000000000001aa       0x47 build/nanos/obj/check_merkle_tree_sorted.o
 .ARM.attributes
                0x00000000000001f1       0x47 build/nanos/obj/compare_wallet_script_at_path.o
 .ARM.attributes
                0x0000000000000238       0x47 build/nanos/obj/crypto.o
 .ARM.attributes
                0x000000000000027f       0x1c build/nanos/obj/cx_stubs.o
 .ARM.attributes
                0x000000000000029b       0x47 build/nanos/obj/cxram_stash.o
 .ARM.attributes
                0x00000000000002e2       0x47 build/nanos/obj/dispatcher.o
 .ARM.attributes
                0x0000000000000329       0x47 build/nanos/obj/display.o
 .ARM.attributes
                0x0000000000000370       0x47 build/nanos/obj/display_utils.o
 .ARM.attributes
                0x00000000000003b7       0x47 build/nanos/obj/extract_bip32_derivation.o
 .ARM.attributes
                0x00000000000003fe       0x47 build/nanos/obj/get_extended_pubkey.o
 .ARM.attributes
                0x0000000000000445       0x47 build/nanos/obj/get_master_fingerprint.o
 .ARM.attributes
                0x000000000000048c       0x47 build/nanos/obj/get_merkle_leaf_element.o
 .ARM.attributes
                0x00000000000004d3       0x47 build/nanos/obj/get_merkle_leaf_hash.o
 .ARM.attributes
                0x000000000000051a       0x47 build/nanos/obj/get_merkle_leaf_index.o
 .ARM.attributes
                0x0000000000000561       0x47 build/nanos/obj/get_merkle_preimage.o
 .ARM.attributes
                0x00000000000005a8       0x47 build/nanos/obj/get_merkleized_map.o
 .ARM.attributes
                0x00000000000005ef       0x47 build/nanos/obj/get_merkleized_map_value.o
 .ARM.attributes
                0x0000000000000636       0x47 build/nanos/obj/get_merkleized_map_value_hash.o
 .ARM.attributes
                0x000000000000067d       0x47 build/nanos/obj/get_preimage.o
 .ARM.attributes
                0x00000000000006c4       0x47 build/nanos/obj/get_wallet_address.o
 .ARM.attributes
                0x000000000000070b       0x45 build/nanos/obj/glyphs.o
 .ARM.attributes
                0x0000000000000750       0x47 build/nanos/obj/handle_check_address.o
 .ARM.attributes
                0x0000000000000797       0x47 build/nanos/obj/handle_get_printable_amount.o
 .ARM.attributes
                0x00000000000007de       0x47 build/nanos/obj/handle_swap_sign_transaction.o
 .ARM.attributes
                0x0000000000000825       0x47 build/nanos/obj/io.o
 .ARM.attributes
                0x000000000000086c       0x47 build/nanos/obj/main.o
 .ARM.attributes
                0x00000000000008b3       0x47 build/nanos/obj/menu.o
 .ARM.attributes
                0x00000000000008fa       0x47 build/nanos/obj/merkle.o
 .ARM.attributes
                0x0000000000000941       0x47 build/nanos/obj/os.o
 .ARM.attributes
                0x0000000000000988       0x47 build/nanos/obj/os_io_seproxyhal.o
 .ARM.attributes
                0x00000000000009cf       0x47 build/nanos/obj/os_io_usb.o
 .ARM.attributes
                0x0000000000000a16       0x47 build/nanos/obj/os_printf.o
 .ARM.attributes
                0x0000000000000a5d       0x47 build/nanos/obj/parser.o
 .ARM.attributes
                0x0000000000000aa4       0x47 build/nanos/obj/pic.o
 .ARM.attributes
                0x0000000000000aeb       0x47 build/nanos/obj/policy.o
 .ARM.attributes
                0x0000000000000b32       0x47 build/nanos/obj/psbt_parse_rawtx.o
 .ARM.attributes
                0x0000000000000b79       0x47 build/nanos/obj/read.o
 .ARM.attributes
                0x0000000000000bc0       0x47 build/nanos/obj/register_wallet.o
 .ARM.attributes
                0x0000000000000c07       0x47 build/nanos/obj/script.o
 .ARM.attributes
                0x0000000000000c4e       0x47 build/nanos/obj/segwit_addr.o
 .ARM.attributes
                0x0000000000000c95       0x47 build/nanos/obj/sign_message.o
 .ARM.attributes
                0x0000000000000cdc       0x47 build/nanos/obj/sign_psbt.o
 .ARM.attributes
                0x0000000000000d23       0x47 build/nanos/obj/stream_merkle_leaf_element.o
 .ARM.attributes
                0x0000000000000d6a       0x47 build/nanos/obj/stream_merkleized_map_value.o
 .ARM.attributes
                0x0000000000000db1       0x47 build/nanos/obj/stream_preimage.o
 .ARM.attributes
                0x0000000000000df8       0x1c build/nanos/obj/svc_call.o
 .ARM.attributes
                0x0000000000000e14       0x1c build/nanos/obj/svc_cx_call.o
 .ARM.attributes
                0x0000000000000e30       0x45 build/nanos/obj/swap_globals.o
 .ARM.attributes
                0x0000000000000e75       0x47 build/nanos/obj/syscalls.o
 .ARM.attributes
                0x0000000000000ebc       0x47 build/nanos/obj/update_hashes_with_map_value.o
 .ARM.attributes
                0x0000000000000f03       0x47 build/nanos/obj/usbd_conf.o
 .ARM.attributes
                0x0000000000000f4a       0x47 build/nanos/obj/usbd_core.o
 .ARM.attributes
                0x0000000000000f91       0x47 build/nanos/obj/usbd_ctlreq.o
 .ARM.attributes
                0x0000000000000fd8       0x47 build/nanos/obj/usbd_hid.o
 .ARM.attributes
                0x000000000000101f       0x47 build/nanos/obj/usbd_impl.o
 .ARM.attributes
                0x0000000000001066       0x47 build/nanos/obj/usbd_ioreq.o
 .ARM.attributes
                0x00000000000010ad       0x47 build/nanos/obj/ux_flow_engine.o
 .ARM.attributes
                0x00000000000010f4       0x47 build/nanos/obj/ux_layout_bb.o
 .ARM.attributes
                0x000000000000113b       0x47 build/nanos/obj/ux_layout_bn.o
 .ARM.attributes
                0x0000000000001182       0x47 build/nanos/obj/ux_layout_nn.o
 .ARM.attributes
                0x00000000000011c9       0x47 build/nanos/obj/ux_layout_paging.o
 .ARM.attributes
                0x0000000000001210       0x47 build/nanos/obj/ux_layout_paging_compute.o
 .ARM.attributes
                0x0000000000001257       0x47 build/nanos/obj/ux_layout_pb.o
 .ARM.attributes
                0x000000000000129e       0x47 build/nanos/obj/ux_layout_pbb.o
 .ARM.attributes
                0x00000000000012e5       0x47 build/nanos/obj/ux_layout_pn.o
 .ARM.attributes
                0x000000000000132c       0x47 build/nanos/obj/ux_layout_pnn.o
 .ARM.attributes
                0x0000000000001373       0x47 build/nanos/obj/ux_layout_utils.o
 .ARM.attributes
                0x00000000000013ba       0x47 build/nanos/obj/ux_stack.o
 .ARM.attributes
                0x0000000000001401       0x47 build/nanos/obj/varint.o
 .ARM.attributes
                0x0000000000001448       0x47 build/nanos/obj/wallet.o
 .ARM.attributes
                0x000000000000148f       0x47 build/nanos/obj/write.o
 .ARM.attributes
                0x00000000000014d6       0x1e /usr/lib/gcc/arm-none-eabi/10.3.0/thumb/v6-m/nofp/libgcc.a(_udivsi3.o)
 .ARM.attributes
                0x00000000000014f4       0x1e /usr/lib/gcc/arm-none-eabi/10.3.0/thumb/v6-m/nofp/libgcc.a(_dvmd_tls.o)
 .ARM.attributes
                0x0000000000001512       0x2c /usr/lib/gcc/arm-none-eabi/10.3.0/thumb/v6-m/nofp/libgcc.a(_muldi3.o)
 .ARM.attributes
                0x000000000000153e       0x2c /usr/lib/gcc/arm-none-eabi/10.3.0/../../../../arm-none-eabi/lib/thumb/v6-m/nofp/libc_nano.a(lib_a-aeabi_memclr.o)
 .ARM.attributes
                0x000000000000156a       0x2c /usr/lib/gcc/arm-none-eabi/10.3.0/../../../../arm-none-eabi/lib/thumb/v6-m/nofp/libc_nano.a(lib_a-aeabi_memcpy.o)
 .ARM.attributes
                0x0000000000001596       0x2c /usr/lib/gcc/arm-none-eabi/10.3.0/../../../../arm-none-eabi/lib/thumb/v6-m/nofp/libc_nano.a(lib_a-aeabi_memmove.o)
 .ARM.attributes
                0x00000000000015c2       0x2c /usr/lib/gcc/arm-none-eabi/10.3.0/../../../../arm-none-eabi/lib/thumb/v6-m/nofp/libc_nano.a(lib_a-aeabi_memset.o)
 .ARM.attributes
                0x00000000000015ee       0x2c /usr/lib/gcc/arm-none-eabi/10.3.0/../../../../arm-none-eabi/lib/thumb/v6-m/nofp/libc_nano.a(lib_a-explicit_bzero.o)
 .ARM.attributes
                0x000000000000161a       0x2c /usr/lib/gcc/arm-none-eabi/10.3.0/../../../../arm-none-eabi/lib/thumb/v6-m/nofp/libc_nano.a(lib_a-memcmp.o)
 .ARM.attributes
                0x0000000000001646       0x2c /usr/lib/gcc/arm-none-eabi/10.3.0/../../../../arm-none-eabi/lib/thumb/v6-m/nofp/libc_nano.a(lib_a-memcpy-stub.o)
 .ARM.attributes
                0x0000000000001672       0x2c /usr/lib/gcc/arm-none-eabi/10.3.0/../../../../arm-none-eabi/lib/thumb/v6-m/nofp/libc_nano.a(lib_a-memmove.o)
 .ARM.attributes
                0x000000000000169e       0x2c /usr/lib/gcc/arm-none-eabi/10.3.0/../../../../arm-none-eabi/lib/thumb/v6-m/nofp/libc_nano.a(lib_a-memset.o)
 .ARM.attributes
                0x00000000000016ca       0x1c /usr/lib/gcc/arm-none-eabi/10.3.0/../../../../arm-none-eabi/lib/thumb/v6-m/nofp/libc_nano.a(lib_a-setjmp.o)
 .ARM.attributes
                0x00000000000016e6       0x2c /usr/lib/gcc/arm-none-eabi/10.3.0/../../../../arm-none-eabi/lib/thumb/v6-m/nofp/libc_nano.a(lib_a-strcpy.o)
 .ARM.attributes
                0x0000000000001712       0x2c /usr/lib/gcc/arm-none-eabi/10.3.0/../../../../arm-none-eabi/lib/thumb/v6-m/nofp/libc_nano.a(lib_a-strlen-stub.o)
 .ARM.attributes
                0x000000000000173e       0x2c /usr/lib/gcc/arm-none-eabi/10.3.0/../../../../arm-none-eabi/lib/thumb/v6-m/nofp/libc_nano.a(lib_a-strncmp.o)
 .ARM.attributes
                0x000000000000176a       0x2c /usr/lib/gcc/arm-none-eabi/10.3.0/../../../../arm-none-eabi/lib/thumb/v6-m/nofp/libc_nano.a(lib_a-strncpy.o)
 .ARM.attributes
                0x0000000000001796       0x2c /usr/lib/gcc/arm-none-eabi/10.3.0/../../../../arm-none-eabi/lib/thumb/v6-m/nofp/libc_nano.a(lib_a-bzero.o)

.debug
 *(.debug)

.line
 *(.line)

.debug_srcinfo
 *(.debug_srcinfo)

.debug_sfnames
 *(.debug_sfnames)

.debug_aranges  0x0000000000000000      0x1e0
 *(.debug_aranges)
 .debug_aranges
                0x0000000000000000       0x20 /usr/lib/gcc/arm-none-eabi/10.3.0/../../../../arm-none-eabi/lib/thumb/v6-m/nofp/libc_nano.a(lib_a-aeabi_memclr.o)
 .debug_aranges
                0x0000000000000020       0x20 /usr/lib/gcc/arm-none-eabi/10.3.0/../../../../arm-none-eabi/lib/thumb/v6-m/nofp/libc_nano.a(lib_a-aeabi_memcpy.o)
 .debug_aranges
                0x0000000000000040       0x20 /usr/lib/gcc/arm-none-eabi/10.3.0/../../../../arm-none-eabi/lib/thumb/v6-m/nofp/libc_nano.a(lib_a-aeabi_memmove.o)
 .debug_aranges
                0x0000000000000060       0x20 /usr/lib/gcc/arm-none-eabi/10.3.0/../../../../arm-none-eabi/lib/thumb/v6-m/nofp/libc_nano.a(lib_a-aeabi_memset.o)
 .debug_aranges
                0x0000000000000080       0x20 /usr/lib/gcc/arm-none-eabi/10.3.0/../../../../arm-none-eabi/lib/thumb/v6-m/nofp/libc_nano.a(lib_a-explicit_bzero.o)
 .debug_aranges
                0x00000000000000a0       0x20 /usr/lib/gcc/arm-none-eabi/10.3.0/../../../../arm-none-eabi/lib/thumb/v6-m/nofp/libc_nano.a(lib_a-memcmp.o)
 .debug_aranges
                0x00000000000000c0       0x20 /usr/lib/gcc/arm-none-eabi/10.3.0/../../../../arm-none-eabi/lib/thumb/v6-m/nofp/libc_nano.a(lib_a-memcpy-stub.o)
 .debug_aranges
                0x00000000000000e0       0x20 /usr/lib/gcc/arm-none-eabi/10.3.0/../../../../arm-none-eabi/lib/thumb/v6-m/nofp/libc_nano.a(lib_a-memmove.o)
 .debug_aranges
                0x0000000000000100       0x20 /usr/lib/gcc/arm-none-eabi/10.3.0/../../../../arm-none-eabi/lib/thumb/v6-m/nofp/libc_nano.a(lib_a-memset.o)
 .debug_aranges
                0x0000000000000120       0x20 /usr/lib/gcc/arm-none-eabi/10.3.0/../../../../arm-none-eabi/lib/thumb/v6-m/nofp/libc_nano.a(lib_a-setjmp.o)
 .debug_aranges
                0x0000000000000140       0x20 /usr/lib/gcc/arm-none-eabi/10.3.0/../../../../arm-none-eabi/lib/thumb/v6-m/nofp/libc_nano.a(lib_a-strcpy.o)
 .debug_aranges
                0x0000000000000160       0x20 /usr/lib/gcc/arm-none-eabi/10.3.0/../../../../arm-none-eabi/lib/thumb/v6-m/nofp/libc_nano.a(lib_a-strlen-stub.o)
 .debug_aranges
                0x0000000000000180       0x20 /usr/lib/gcc/arm-none-eabi/10.3.0/../../../../arm-none-eabi/lib/thumb/v6-m/nofp/libc_nano.a(lib_a-strncmp.o)
 .debug_aranges
                0x00000000000001a0       0x20 /usr/lib/gcc/arm-none-eabi/10.3.0/../../../../arm-none-eabi/lib/thumb/v6-m/nofp/libc_nano.a(lib_a-strncpy.o)
 .debug_aranges
                0x00000000000001c0       0x20 /usr/lib/gcc/arm-none-eabi/10.3.0/../../../../arm-none-eabi/lib/thumb/v6-m/nofp/libc_nano.a(lib_a-bzero.o)

.debug_pubnames
 *(.debug_pubnames)

.debug_info     0x0000000000000000      0xec9
 *(.debug_info .gnu.linkonce.wi.*)
 .debug_info    0x0000000000000000       0xd2 /usr/lib/gcc/arm-none-eabi/10.3.0/../../../../arm-none-eabi/lib/thumb/v6-m/nofp/libc_nano.a(lib_a-aeabi_memclr.o)
 .debug_info    0x00000000000000d2       0xef /usr/lib/gcc/arm-none-eabi/10.3.0/../../../../arm-none-eabi/lib/thumb/v6-m/nofp/libc_nano.a(lib_a-aeabi_memcpy.o)
 .debug_info    0x00000000000001c1       0xef /usr/lib/gcc/arm-none-eabi/10.3.0/../../../../arm-none-eabi/lib/thumb/v6-m/nofp/libc_nano.a(lib_a-aeabi_memmove.o)
 .debug_info    0x00000000000002b0       0xe6 /usr/lib/gcc/arm-none-eabi/10.3.0/../../../../arm-none-eabi/lib/thumb/v6-m/nofp/libc_nano.a(lib_a-aeabi_memset.o)
 .debug_info    0x0000000000000396       0xe7 /usr/lib/gcc/arm-none-eabi/10.3.0/../../../../arm-none-eabi/lib/thumb/v6-m/nofp/libc_nano.a(lib_a-explicit_bzero.o)
 .debug_info    0x000000000000047d      0x138 /usr/lib/gcc/arm-none-eabi/10.3.0/../../../../arm-none-eabi/lib/thumb/v6-m/nofp/libc_nano.a(lib_a-memcmp.o)
 .debug_info    0x00000000000005b5      0x15c /usr/lib/gcc/arm-none-eabi/10.3.0/../../../../arm-none-eabi/lib/thumb/v6-m/nofp/libc_nano.a(lib_a-memcpy-stub.o)
 .debug_info    0x0000000000000711      0x152 /usr/lib/gcc/arm-none-eabi/10.3.0/../../../../arm-none-eabi/lib/thumb/v6-m/nofp/libc_nano.a(lib_a-memmove.o)
 .debug_info    0x0000000000000863      0x13d /usr/lib/gcc/arm-none-eabi/10.3.0/../../../../arm-none-eabi/lib/thumb/v6-m/nofp/libc_nano.a(lib_a-memset.o)
 .debug_info    0x00000000000009a0       0x26 /usr/lib/gcc/arm-none-eabi/10.3.0/../../../../arm-none-eabi/lib/thumb/v6-m/nofp/libc_nano.a(lib_a-setjmp.o)
 .debug_info    0x00000000000009c6       0xc4 /usr/lib/gcc/arm-none-eabi/10.3.0/../../../../arm-none-eabi/lib/thumb/v6-m/nofp/libc_nano.a(lib_a-strcpy.o)
 .debug_info    0x0000000000000a8a       0xee /usr/lib/gcc/arm-none-eabi/10.3.0/../../../../arm-none-eabi/lib/thumb/v6-m/nofp/libc_nano.a(lib_a-strlen-stub.o)
 .debug_info    0x0000000000000b78      0x110 /usr/lib/gcc/arm-none-eabi/10.3.0/../../../../arm-none-eabi/lib/thumb/v6-m/nofp/libc_nano.a(lib_a-strncmp.o)
 .debug_info    0x0000000000000c88      0x153 /usr/lib/gcc/arm-none-eabi/10.3.0/../../../../arm-none-eabi/lib/thumb/v6-m/nofp/libc_nano.a(lib_a-strncpy.o)
 .debug_info    0x0000000000000ddb       0xee /usr/lib/gcc/arm-none-eabi/10.3.0/../../../../arm-none-eabi/lib/thumb/v6-m/nofp/libc_nano.a(lib_a-bzero.o)

.debug_abbrev   0x0000000000000000      0x9bc
 *(.debug_abbrev)
 .debug_abbrev  0x0000000000000000       0xca /usr/lib/gcc/arm-none-eabi/10.3.0/../../../../arm-none-eabi/lib/thumb/v6-m/nofp/libc_nano.a(lib_a-aeabi_memclr.o)
 .debug_abbrev  0x00000000000000ca       0xd8 /usr/lib/gcc/arm-none-eabi/10.3.0/../../../../arm-none-eabi/lib/thumb/v6-m/nofp/libc_nano.a(lib_a-aeabi_memcpy.o)
 .debug_abbrev  0x00000000000001a2       0xd8 /usr/lib/gcc/arm-none-eabi/10.3.0/../../../../arm-none-eabi/lib/thumb/v6-m/nofp/libc_nano.a(lib_a-aeabi_memmove.o)
 .debug_abbrev  0x000000000000027a       0xca /usr/lib/gcc/arm-none-eabi/10.3.0/../../../../arm-none-eabi/lib/thumb/v6-m/nofp/libc_nano.a(lib_a-aeabi_memset.o)
 .debug_abbrev  0x0000000000000344       0x9a /usr/lib/gcc/arm-none-eabi/10.3.0/../../../../arm-none-eabi/lib/thumb/v6-m/nofp/libc_nano.a(lib_a-explicit_bzero.o)
 .debug_abbrev  0x00000000000003de       0x8d /usr/lib/gcc/arm-none-eabi/10.3.0/../../../../arm-none-eabi/lib/thumb/v6-m/nofp/libc_nano.a(lib_a-memcmp.o)
 .debug_abbrev  0x000000000000046b       0xc7 /usr/lib/gcc/arm-none-eabi/10.3.0/../../../../arm-none-eabi/lib/thumb/v6-m/nofp/libc_nano.a(lib_a-memcpy-stub.o)
 .debug_abbrev  0x0000000000000532       0xc0 /usr/lib/gcc/arm-none-eabi/10.3.0/../../../../arm-none-eabi/lib/thumb/v6-m/nofp/libc_nano.a(lib_a-memmove.o)
 .debug_abbrev  0x00000000000005f2       0xb4 /usr/lib/gcc/arm-none-eabi/10.3.0/../../../../arm-none-eabi/lib/thumb/v6-m/nofp/libc_nano.a(lib_a-memset.o)
 .debug_abbrev  0x00000000000006a6       0x14 /usr/lib/gcc/arm-none-eabi/10.3.0/../../../../arm-none-eabi/lib/thumb/v6-m/nofp/libc_nano.a(lib_a-setjmp.o)
 .debug_abbrev  0x00000000000006ba       0x7b /usr/lib/gcc/arm-none-eabi/10.3.0/../../../../arm-none-eabi/lib/thumb/v6-m/nofp/libc_nano.a(lib_a-strcpy.o)
 .debug_abbrev  0x0000000000000735       0x8f /usr/lib/gcc/arm-none-eabi/10.3.0/../../../../arm-none-eabi/lib/thumb/v6-m/nofp/libc_nano.a(lib_a-strlen-stub.o)
 .debug_abbrev  0x00000000000007c4       0x8f /usr/lib/gcc/arm-none-eabi/10.3.0/../../../../arm-none-eabi/lib/thumb/v6-m/nofp/libc_nano.a(lib_a-strncmp.o)
 .debug_abbrev  0x0000000000000853       0xbb /usr/lib/gcc/arm-none-eabi/10.3.0/../../../../arm-none-eabi/lib/thumb/v6-m/nofp/libc_nano.a(lib_a-strncpy.o)
 .debug_abbrev  0x000000000000090e       0xae /usr/lib/gcc/arm-none-eabi/10.3.0/../../../../arm-none-eabi/lib/thumb/v6-m/nofp/libc_nano.a(lib_a-bzero.o)

.debug_line     0x0000000000000000     0x1428
 *(.debug_line)
 .debug_line    0x0000000000000000       0xdb /usr/lib/gcc/arm-none-eabi/10.3.0/../../../../arm-none-eabi/lib/thumb/v6-m/nofp/libc_nano.a(lib_a-aeabi_memclr.o)
 .debug_line    0x00000000000000db       0xd5 /usr/lib/gcc/arm-none-eabi/10.3.0/../../../../arm-none-eabi/lib/thumb/v6-m/nofp/libc_nano.a(lib_a-aeabi_memcpy.o)
 .debug_line    0x00000000000001b0       0xd6 /usr/lib/gcc/arm-none-eabi/10.3.0/../../../../arm-none-eabi/lib/thumb/v6-m/nofp/libc_nano.a(lib_a-aeabi_memmove.o)
 .debug_line    0x0000000000000286       0xd8 /usr/lib/gcc/arm-none-eabi/10.3.0/../../../../arm-none-eabi/lib/thumb/v6-m/nofp/libc_nano.a(lib_a-aeabi_memset.o)
 .debug_line    0x000000000000035e      0x12b /usr/lib/gcc/arm-none-eabi/10.3.0/../../../../arm-none-eabi/lib/thumb/v6-m/nofp/libc_nano.a(lib_a-explicit_bzero.o)
 .debug_line    0x0000000000000489      0x19f /usr/lib/gcc/arm-none-eabi/10.3.0/../../../../arm-none-eabi/lib/thumb/v6-m/nofp/libc_nano.a(lib_a-memcmp.o)
 .debug_line    0x0000000000000628      0x1ea /usr/lib/gcc/arm-none-eabi/10.3.0/../../../../arm-none-eabi/lib/thumb/v6-m/nofp/libc_nano.a(lib_a-memcpy-stub.o)
 .debug_line    0x0000000000000812      0x219 /usr/lib/gcc/arm-none-eabi/10.3.0/../../../../arm-none-eabi/lib/thumb/v6-m/nofp/libc_nano.a(lib_a-memmove.o)
 .debug_line    0x0000000000000a2b      0x206 /usr/lib/gcc/arm-none-eabi/10.3.0/../../../../arm-none-eabi/lib/thumb/v6-m/nofp/libc_nano.a(lib_a-memset.o)
 .debug_line    0x0000000000000c31       0xa3 /usr/lib/gcc/arm-none-eabi/10.3.0/../../../../arm-none-eabi/lib/thumb/v6-m/nofp/libc_nano.a(lib_a-setjmp.o)
 .debug_line    0x0000000000000cd4       0xec /usr/lib/gcc/arm-none-eabi/10.3.0/../../../../arm-none-eabi/lib/thumb/v6-m/nofp/libc_nano.a(lib_a-strcpy.o)
 .debug_line    0x0000000000000dc0      0x1a7 /usr/lib/gcc/arm-none-eabi/10.3.0/../../../../arm-none-eabi/lib/thumb/v6-m/nofp/libc_nano.a(lib_a-strlen-stub.o)
 .debug_line    0x0000000000000f67      0x1e1 /usr/lib/gcc/arm-none-eabi/10.3.0/../../../../arm-none-eabi/lib/thumb/v6-m/nofp/libc_nano.a(lib_a-strncmp.o)
 .debug_line    0x0000000000001148      0x1af /usr/lib/gcc/arm-none-eabi/10.3.0/../../../../arm-none-eabi/lib/thumb/v6-m/nofp/libc_nano.a(lib_a-strncpy.o)
 .debug_line    0x00000000000012f7      0x131 /usr/lib/gcc/arm-none-eabi/10.3.0/../../../../arm-none-eabi/lib/thumb/v6-m/nofp/libc_nano.a(lib_a-bzero.o)

.debug_frame    0x0000000000000000      0x254
 *(.debug_frame)
 .debug_frame   0x0000000000000000       0x28 /usr/lib/gcc/arm-none-eabi/10.3.0/../../../../arm-none-eabi/lib/thumb/v6-m/nofp/libc_nano.a(lib_a-aeabi_memclr.o)
 .debug_frame   0x0000000000000028       0x28 /usr/lib/gcc/arm-none-eabi/10.3.0/../../../../arm-none-eabi/lib/thumb/v6-m/nofp/libc_nano.a(lib_a-aeabi_memcpy.o)
 .debug_frame   0x0000000000000050       0x28 /usr/lib/gcc/arm-none-eabi/10.3.0/../../../../arm-none-eabi/lib/thumb/v6-m/nofp/libc_nano.a(lib_a-aeabi_memmove.o)
 .debug_frame   0x0000000000000078       0x28 /usr/lib/gcc/arm-none-eabi/10.3.0/../../../../arm-none-eabi/lib/thumb/v6-m/nofp/libc_nano.a(lib_a-aeabi_memset.o)
 .debug_frame   0x00000000000000a0       0x28 /usr/lib/gcc/arm-none-eabi/10.3.0/../../../../arm-none-eabi/lib/thumb/v6-m/nofp/libc_nano.a(lib_a-explicit_bzero.o)
 .debug_frame   0x00000000000000c8       0x2c /usr/lib/gcc/arm-none-eabi/10.3.0/../../../../arm-none-eabi/lib/thumb/v6-m/nofp/libc_nano.a(lib_a-memcmp.o)
 .debug_frame   0x00000000000000f4       0x34 /usr/lib/gcc/arm-none-eabi/10.3.0/../../../../arm-none-eabi/lib/thumb/v6-m/nofp/libc_nano.a(lib_a-memcpy-stub.o)
 .debug_frame   0x0000000000000128       0x30 /usr/lib/gcc/arm-none-eabi/10.3.0/../../../../arm-none-eabi/lib/thumb/v6-m/nofp/libc_nano.a(lib_a-memmove.o)
 .debug_frame   0x0000000000000158       0x30 /usr/lib/gcc/arm-none-eabi/10.3.0/../../../../arm-none-eabi/lib/thumb/v6-m/nofp/libc_nano.a(lib_a-memset.o)
 .debug_frame   0x0000000000000188       0x20 /usr/lib/gcc/arm-none-eabi/10.3.0/../../../../arm-none-eabi/lib/thumb/v6-m/nofp/libc_nano.a(lib_a-strcpy.o)
 .debug_frame   0x00000000000001a8       0x28 /usr/lib/gcc/arm-none-eabi/10.3.0/../../../../arm-none-eabi/lib/thumb/v6-m/nofp/libc_nano.a(lib_a-strlen-stub.o)
 .debug_frame   0x00000000000001d0       0x2c /usr/lib/gcc/arm-none-eabi/10.3.0/../../../../arm-none-eabi/lib/thumb/v6-m/nofp/libc_nano.a(lib_a-strncmp.o)
 .debug_frame   0x00000000000001fc       0x30 /usr/lib/gcc/arm-none-eabi/10.3.0/../../../../arm-none-eabi/lib/thumb/v6-m/nofp/libc_nano.a(lib_a-strncpy.o)
 .debug_frame   0x000000000000022c       0x28 /usr/lib/gcc/arm-none-eabi/10.3.0/../../../../arm-none-eabi/lib/thumb/v6-m/nofp/libc_nano.a(lib_a-bzero.o)

.debug_str      0x0000000000000000      0x804
 *(.debug_str)
 .debug_str     0x0000000000000000      0x189 /usr/lib/gcc/arm-none-eabi/10.3.0/../../../../arm-none-eabi/lib/thumb/v6-m/nofp/libc_nano.a(lib_a-aeabi_memclr.o)
                                        0x196 (size before relaxing)
 .debug_str     0x0000000000000189       0x76 /usr/lib/gcc/arm-none-eabi/10.3.0/../../../../arm-none-eabi/lib/thumb/v6-m/nofp/libc_nano.a(lib_a-aeabi_memcpy.o)
                                        0x195 (size before relaxing)
 .debug_str     0x00000000000001ff       0x71 /usr/lib/gcc/arm-none-eabi/10.3.0/../../../../arm-none-eabi/lib/thumb/v6-m/nofp/libc_nano.a(lib_a-aeabi_memmove.o)
                                        0x198 (size before relaxing)
 .debug_str     0x0000000000000270       0x60 /usr/lib/gcc/arm-none-eabi/10.3.0/../../../../arm-none-eabi/lib/thumb/v6-m/nofp/libc_nano.a(lib_a-aeabi_memset.o)
                                        0x18e (size before relaxing)
 .debug_str     0x00000000000002d0      0x131 /usr/lib/gcc/arm-none-eabi/10.3.0/../../../../arm-none-eabi/lib/thumb/v6-m/nofp/libc_nano.a(lib_a-explicit_bzero.o)
                                        0x1ee (size before relaxing)
 .debug_str     0x0000000000000401       0x5c /usr/lib/gcc/arm-none-eabi/10.3.0/../../../../arm-none-eabi/lib/thumb/v6-m/nofp/libc_nano.a(lib_a-memcmp.o)
                                        0x1d8 (size before relaxing)
 .debug_str     0x000000000000045d       0x86 /usr/lib/gcc/arm-none-eabi/10.3.0/../../../../arm-none-eabi/lib/thumb/v6-m/nofp/libc_nano.a(lib_a-memcpy-stub.o)
                                        0x20e (size before relaxing)
 .debug_str     0x00000000000004e3       0x6f /usr/lib/gcc/arm-none-eabi/10.3.0/../../../../arm-none-eabi/lib/thumb/v6-m/nofp/libc_nano.a(lib_a-memmove.o)
                                        0x20b (size before relaxing)
 .debug_str     0x0000000000000552       0x69 /usr/lib/gcc/arm-none-eabi/10.3.0/../../../../arm-none-eabi/lib/thumb/v6-m/nofp/libc_nano.a(lib_a-memset.o)
                                        0x1ec (size before relaxing)
 .debug_str     0x00000000000005bb       0x66 /usr/lib/gcc/arm-none-eabi/10.3.0/../../../../arm-none-eabi/lib/thumb/v6-m/nofp/libc_nano.a(lib_a-setjmp.o)
                                         0xee (size before relaxing)
 .debug_str     0x0000000000000621       0x61 /usr/lib/gcc/arm-none-eabi/10.3.0/../../../../arm-none-eabi/lib/thumb/v6-m/nofp/libc_nano.a(lib_a-strcpy.o)
                                        0x1db (size before relaxing)
 .debug_str     0x0000000000000682       0x6c /usr/lib/gcc/arm-none-eabi/10.3.0/../../../../arm-none-eabi/lib/thumb/v6-m/nofp/libc_nano.a(lib_a-strlen-stub.o)
                                        0x1fa (size before relaxing)
 .debug_str     0x00000000000006ee       0x5e /usr/lib/gcc/arm-none-eabi/10.3.0/../../../../arm-none-eabi/lib/thumb/v6-m/nofp/libc_nano.a(lib_a-strncmp.o)
                                        0x1da (size before relaxing)
 .debug_str     0x000000000000074c       0x64 /usr/lib/gcc/arm-none-eabi/10.3.0/../../../../arm-none-eabi/lib/thumb/v6-m/nofp/libc_nano.a(lib_a-strncpy.o)
                                        0x202 (size before relaxing)
 .debug_str     0x00000000000007b0       0x54 /usr/lib/gcc/arm-none-eabi/10.3.0/../../../../arm-none-eabi/lib/thumb/v6-m/nofp/libc_nano.a(lib_a-bzero.o)
                                        0x1e4 (size before relaxing)

.debug_loc      0x0000000000000000     0x14bb
 *(.debug_loc)
 .debug_loc     0x0000000000000000       0x4a /usr/lib/gcc/arm-none-eabi/10.3.0/../../../../arm-none-eabi/lib/thumb/v6-m/nofp/libc_nano.a(lib_a-aeabi_memclr.o)
 .debug_loc     0x000000000000004a       0x6f /usr/lib/gcc/arm-none-eabi/10.3.0/../../../../arm-none-eabi/lib/thumb/v6-m/nofp/libc_nano.a(lib_a-aeabi_memcpy.o)
 .debug_loc     0x00000000000000b9       0x6f /usr/lib/gcc/arm-none-eabi/10.3.0/../../../../arm-none-eabi/lib/thumb/v6-m/nofp/libc_nano.a(lib_a-aeabi_memmove.o)
 .debug_loc     0x0000000000000128       0x89 /usr/lib/gcc/arm-none-eabi/10.3.0/../../../../arm-none-eabi/lib/thumb/v6-m/nofp/libc_nano.a(lib_a-aeabi_memset.o)
 .debug_loc     0x00000000000001b1       0x4a /usr/lib/gcc/arm-none-eabi/10.3.0/../../../../arm-none-eabi/lib/thumb/v6-m/nofp/libc_nano.a(lib_a-explicit_bzero.o)
 .debug_loc     0x00000000000001fb      0x1f1 /usr/lib/gcc/arm-none-eabi/10.3.0/../../../../arm-none-eabi/lib/thumb/v6-m/nofp/libc_nano.a(lib_a-memcmp.o)
 .debug_loc     0x00000000000003ec      0x457 /usr/lib/gcc/arm-none-eabi/10.3.0/../../../../arm-none-eabi/lib/thumb/v6-m/nofp/libc_nano.a(lib_a-memcpy-stub.o)
 .debug_loc     0x0000000000000843      0x508 /usr/lib/gcc/arm-none-eabi/10.3.0/../../../../arm-none-eabi/lib/thumb/v6-m/nofp/libc_nano.a(lib_a-memmove.o)
 .debug_loc     0x0000000000000d4b      0x2a3 /usr/lib/gcc/arm-none-eabi/10.3.0/../../../../arm-none-eabi/lib/thumb/v6-m/nofp/libc_nano.a(lib_a-memset.o)
 .debug_loc     0x0000000000000fee       0x25 /usr/lib/gcc/arm-none-eabi/10.3.0/../../../../arm-none-eabi/lib/thumb/v6-m/nofp/libc_nano.a(lib_a-strcpy.o)
 .debug_loc     0x0000000000001013       0x90 /usr/lib/gcc/arm-none-eabi/10.3.0/../../../../arm-none-eabi/lib/thumb/v6-m/nofp/libc_nano.a(lib_a-strlen-stub.o)
 .debug_loc     0x00000000000010a3      0x1a0 /usr/lib/gcc/arm-none-eabi/10.3.0/../../../../arm-none-eabi/lib/thumb/v6-m/nofp/libc_nano.a(lib_a-strncmp.o)
 .debug_loc     0x0000000000001243      0x221 /usr/lib/gcc/arm-none-eabi/10.3.0/../../../../arm-none-eabi/lib/thumb/v6-m/nofp/libc_nano.a(lib_a-strncpy.o)
 .debug_loc     0x0000000000001464       0x57 /usr/lib/gcc/arm-none-eabi/10.3.0/../../../../arm-none-eabi/lib/thumb/v6-m/nofp/libc_nano.a(lib_a-bzero.o)

.debug_macinfo
 *(.debug_macinfo)

.debug_weaknames
 *(.debug_weaknames)

.debug_funcnames
 *(.debug_funcnames)

.debug_typenames
 *(.debug_typenames)

.debug_varnames
 *(.debug_varnames)
                0x00000000c0d00000                PROVIDE (_nvram = ABSOLUTE (_nvram_start))
                0x00000000c0d0e640                PROVIDE (_envram = ABSOLUTE (_nvram_end))
OUTPUT(build/nanos/bin/app.elf elf32-littlearm)
LOAD linker stubs
LOAD /usr/lib/gcc/arm-none-eabi/10.3.0/../../../../arm-none-eabi/lib/thumb/v6-m/nofp/libc.a
LOAD /usr/lib/gcc/arm-none-eabi/10.3.0/../../../../arm-none-eabi/lib/thumb/v6-m/nofp/libm.a
LOAD /usr/lib/gcc/arm-none-eabi/10.3.0/thumb/v6-m/nofp/libgcc.a

.debug_ranges   0x0000000000000000       0x10
 .debug_ranges  0x0000000000000000       0x10 /usr/lib/gcc/arm-none-eabi/10.3.0/../../../../arm-none-eabi/lib/thumb/v6-m/nofp/libc_nano.a(lib_a-strcpy.o)
